(lp0
(lp1
(lp2
F0.0
aF0.0
aF0.0
aF0.0
aF0.0
aF0.0
aF0.0
aF0.0
aF0.0
aF0.0
aF0.0
aF0.0
aF0.0
aF0.0
aF0.0
aF0.0
aF0.0
aF0.0
aF0.0
aF0.0
aF0.0
aF0.0
aF0.0
aF0.0
aF0.0
aF0.0
aF0.0
aF0.0
aF0.0
aF0.0
aF0.0
aF0.0
aF0.0
aF0.0
aF0.0
aF0.0
aF0.0
aF0.0
aF0.0
aF0.0
aF0.0
aF0.0
aF0.0
aF0.0
aF0.0
aF0.0
aF0.0
aF0.0
aF0.0
aF0.0
aF0.0
aF0.0
aF0.0
aF0.0
aF0.0
aF0.0
aF0.0
aF0.0
aF0.0
aF0.0
aF0.0
aF0.0
aF0.0
aF0.0
aF0.0
aF0.0
aF0.0
aF0.0
aF0.0
aF0.0
aF0.0
aF0.0
aF0.0
aF0.0
aF0.0
aF0.0
aF0.0
aF0.0
aF0.0
aF0.0
aF0.0
aF0.0
aF0.0
aF0.0
aF0.0
aF0.0
aF0.0
aF0.0
aF0.0
aF0.0
aF0.0
aF0.0
aF0.0
aF0.0
aF0.0
aF0.0
aF0.0
aF0.0
aF0.0
aF0.0
aF0.0
aF0.0
aF0.0
aF0.0
aF0.0
aF0.0
aF0.0
aF0.0
aF0.0
aF0.0
aF0.0
aF0.0
aF0.0
aF0.0
aF0.0
aF0.0
aF0.0
aF0.0
aF0.0
aF0.0
aF0.0
aF0.0
aF0.0
aF0.0
aF0.0
aF0.0
aF0.0
aF0.0
aF0.0
aF0.0
aF0.0
aF0.0
aF0.0
aF0.0
aF0.0
aF0.0
aF0.0
aF0.0
aF0.0
aF0.0
aF0.0
aF0.0
aF0.0
aF0.0
aF0.0
aF0.0
aF0.0
aF0.0
aF0.0
aF0.0
aF0.0
aF0.0
aF0.0
aF0.0
aF0.0
aF0.0
aF0.0
aF0.0
aF0.0
aF0.0
aF0.0
aF0.0
aF0.0
aF0.0
aF0.0
aF0.0
aF0.0
aF0.0
aF0.0
aF0.0
aF0.0
aF0.0
aF0.0
aF0.0
aF0.0
aF0.0
aF0.0
aF0.0
aF0.0
aF0.0
aF0.0
aF0.0
aF0.0
aF0.0
aF0.0
aF0.0
aF0.0
aF0.0
aF0.0
aF0.0
aF0.0
aF0.0
aF0.0
aF0.0
aF0.0
aF0.0
aF0.0
aF0.0
aF0.0
aF0.0
aF0.0
aF0.0
aF0.0
aF0.0
aF0.0
aF0.0
aF0.0
aF0.0
aF0.0
aF0.0
aF0.0
aF0.0
aF0.0
aF0.0
aF0.0
aF0.0
aF0.0
aF0.0
aF0.0
aF0.0
aF0.0
aF0.0
aF0.0
aF0.0
aF0.0
aF0.0
aF0.0
aF0.0
aF0.0
aF0.0
aF0.0
aF0.0
aF0.0
aF0.0
aF0.0
aF0.0
aF0.0
aF0.0
aF0.0
aF0.0
aF0.0
aF0.0
aF0.0
aF0.0
aF0.0
aF0.0
aF0.0
aF0.0
aF0.0
aF0.0
aF0.0
aF0.0
aF0.0
aF0.0
aF0.0
aF0.0
aF0.0
aF0.0
aF0.0
aF0.0
aF0.0
aF0.0
aF0.0
aF0.0
aF0.0
aF0.0
aF0.0
aF0.0
aF0.0
aF0.0
aF0.0
aF0.0
aF0.0
aF0.0
aF0.0
aF0.0
aF0.0
aF0.0
aF0.0
aF0.0
aF0.0
aF0.0
aF0.0
aF0.0
aF0.0
aF0.0
aF0.0
aF0.0
aF0.0
aF0.0
aF0.0
aF0.0
aF0.0
aF0.0
aF0.0
aF0.0
aF0.0
aF0.0
aF0.0
aF0.0
aF0.0
aF0.0
aF0.0
aF0.0
aF0.0
aF0.0
aF0.0
aF0.0
aF0.0
aF0.0
aF0.0
aF0.0
aF0.0
aF0.0
aF0.0
aF0.0
aF0.0
aF0.0
aF0.0
aF0.0
aF0.0
aF0.0
aF0.0
aF0.0
aF0.0
aF0.0
aF0.0
aF0.0
aF0.0
aF0.0
aF0.0
aF0.0
aF0.0
aF0.0
aF0.0
aF0.0
aF0.0
aF0.0
aF0.0
aF0.0
aF0.0
aF0.0
aF0.0
aF0.0
aF0.0
aF0.0
aF0.0
aF0.0
aF0.0
aF0.0
aF0.0
aF0.0
aF0.0
aF0.0
aF0.0
aF0.0
aF0.0
aF0.0
aF0.0
aF0.0
aF0.0
aF0.0
aF0.0
aF0.0
aF0.0
aF0.0
aF0.0
aF0.0
aF0.0
aF0.0
aF0.0
aF0.0
aF0.0
aF0.0
aF0.0
aF0.0
aF0.0
aF0.0
aF0.0
aF0.0
aF0.0
aF0.0
aF0.0
aF0.0
aF0.0
aF0.0
aF0.0
aF0.0
aF0.0
aF0.0
aF0.0
aF0.0
aF0.0
aF0.0
aF0.0
aF0.0
aF0.0
aF0.0
aF0.0
aF0.0
aF0.0
aF0.0
aF0.0
aF0.0
aF0.0
aF0.0
aF0.0
aF0.0
aF0.0
aF0.0
aF0.0
aF0.0
aF0.0
aF0.0
aF0.0
aF0.0
aF0.0
aF0.0
aF0.0
aF0.0
aF0.0
aF0.0
aF0.0
aF0.0
aF0.0
aF0.0
aF0.0
aF0.0
aF0.0
aF0.0
aF0.0
aF0.0
aF0.0
aF0.0
aF0.0
aF0.0
aF0.0
aF0.0
aF0.0
aF0.0
aF0.0
aF0.0
aF0.0
aF0.0
aF0.0
aF0.0
aF0.0
aF0.0
aF0.0
aF0.0
aF0.0
aF0.0
aF0.0
aF0.0
aF0.0
aF0.0
aF0.0
aF0.0
aF0.0
aF0.0
aF0.0
aF0.0
aF0.0
aF0.0
aF0.0
aF0.0
aF0.0
aF0.0
aF0.0
aF0.0
aF0.0
aF0.0
aF0.0
aF0.0
aF0.0
aF0.0
aF0.0
aF0.0
aF0.0
aF0.0
aF0.0
aF0.0
aF0.0
aF0.0
aF0.0
aF0.0
aF0.0
aF0.0
aF0.0
aF0.0
aF0.0
aF0.0
aF0.0
aF0.0
aF0.0
aF0.0
aF0.0
aF0.0
aF0.0
aF0.0
aF0.0
aF0.0
aF0.0
aF0.0
aF0.0
aF0.0
aF0.0
aF0.0
aF0.0
aF0.0
aF0.0
aF0.0
aF0.0
aF0.0
aF0.0
aF0.0
aF0.0
aF0.0
aF0.0
aF0.0
aF0.0
aF0.0
aF0.0
aF0.0
aF0.0
aF0.0
aF0.0
aF0.0
aF0.0
aF0.0
aF0.0
aF0.0
aF0.0
aF0.0
aF0.0
aF0.0
aF0.0
aF0.0
aF0.0
aF0.0
aF0.0
aF0.0
aF0.0
aF0.0
aF0.0
aF0.0
aF0.0
aF0.0
aF0.0
aF0.0
aF0.0
aF0.0
aF0.0
aF0.0
aF0.0
aF0.0
aF0.0
aF0.0
aF0.0
aF0.0
aF0.0
aF0.0
aF0.0
aF0.0
aF0.0
aF0.0
aF0.0
aF0.0
aF0.0
aF0.0
aF0.0
aF0.0
aF0.0
aF0.0
aF0.0
aF0.0
aF0.0
aF0.0
aF0.0
aF0.0
aF0.0
aF0.0
aF0.0
aF0.0
aF0.0
aF0.0
aF0.0
aF0.0
aF0.0
aF0.0
aF0.0
aF0.0
aF0.0
aF0.0
aF0.0
aF0.0
aF0.0
aF0.0
aF0.0
aF0.0
aF0.0
aF0.0
aF0.0
aF0.0
aF0.0
aF0.0
aF0.0
aF0.0
aF0.0
aF0.0
aF0.0
aF0.0
aF0.0
aF0.0
aF0.0
aF0.0
aF0.0
aF0.0
aF0.0
aF0.0
aF0.0
aF0.0
aF0.0
aF0.0
aF0.0
aF0.0
aF0.0
aF0.0
aF0.0
aF0.0
aF0.0
aF0.0
aF0.0
aF0.0
aF0.0
aF0.0
aF0.0
aF0.0
aF0.0
aF0.0
aa(lp3
F0.0
aF0.0
aF0.0
aF0.0
aF0.0
aF0.0
aF0.0
aF0.0
aF0.0
aF0.0
aF0.0
aF0.0
aF0.0
aF0.0
aF0.0
aF0.0
aF0.0
aF0.0
aF0.0
aF0.0
aF0.0
aF0.0
aF0.0
aF0.0
aF0.0
aF0.0
aF0.0
aF0.0
aF0.0
aF0.0
aF0.0
aF0.0
aF0.0
aF0.0
aF0.0
aF0.0
aF0.0
aF0.0
aF0.0
aF0.0
aF0.0
aF0.0
aF0.0
aF0.0
aF0.0
aF0.0
aF0.0
aF0.0
aF0.0
aF0.0
aF0.0
aF0.0
aF0.0
aF0.0
aF0.0
aF0.0
aF0.0
aF0.0
aF0.0
aF0.0
aF0.0
aF0.0
aF0.0
aF0.0
aF0.0
aF0.0
aF0.0
aF0.0
aF0.0
aF0.0
aF0.0
aF0.0
aF0.0
aF0.0
aF0.0
aF0.0
aF0.0
aF0.0
aF0.0
aF0.0
aF0.0
aF0.0
aF0.0
aF0.0
aF0.0
aF0.0
aF0.0
aF0.0
aF0.0
aF0.0
aF0.0
aF0.0
aF0.0
aF0.0
aF0.0
aF0.0
aF0.0
aF0.0
aF0.0
aF0.0
aF0.0
aF0.0
aF0.0
aF0.0
aF0.0
aF0.0
aF0.0
aF0.0
aF0.0
aF0.0
aF0.0
aF0.0
aF0.0
aF0.0
aF0.0
aF0.0
aF0.0
aF0.0
aF0.0
aF0.0
aF0.0
aF0.0
aF0.0
aF0.0
aF0.0
aF0.0
aF0.0
aF0.0
aF0.0
aF0.0
aF0.0
aF0.0
aF0.0
aF0.0
aF0.0
aF0.0
aF0.0
aF0.0
aF0.0
aF0.0
aF0.0
aF0.0
aF0.0
aF0.0
aF0.0
aF0.0
aF0.0
aF0.0
aF0.0
aF0.0
aF0.0
aF0.0
aF0.0
aF0.0
aF0.0
aF0.0
aF0.0
aF0.0
aF0.0
aF0.0
aF0.0
aF0.0
aF0.0
aF0.0
aF0.0
aF0.0
aF0.0
aF0.0
aF0.0
aF0.0
aF0.0
aF0.0
aF0.0
aF0.0
aF0.0
aF0.0
aF0.0
aF0.0
aF0.0
aF0.0
aF0.0
aF0.0
aF0.0
aF0.0
aF0.0
aF0.0
aF0.0
aF0.0
aF0.0
aF0.0
aF0.0
aF0.0
aF0.0
aF0.0
aF0.0
aF0.0
aF0.0
aF0.0
aF0.0
aF0.0
aF0.0
aF0.0
aF0.0
aF0.0
aF0.0
aF0.0
aF0.0
aF0.0
aF0.0
aF0.0
aF0.0
aF0.0
aF0.0
aF0.0
aF0.0
aF0.0
aF0.0
aF0.0
aF0.0
aF0.0
aF0.0
aF0.0
aF0.0
aF0.0
aF0.0
aF0.0
aF0.0
aF0.0
aF0.0
aF0.0
aF0.0
aF0.0
aF0.0
aF0.0
aF0.0
aF0.0
aF0.0
aF0.0
aF0.0
aF0.0
aF0.0
aF0.0
aF0.0
aF0.0
aF0.0
aF0.0
aF0.0
aF0.0
aF0.0
aF0.0
aF0.0
aF0.0
aF0.0
aF0.0
aF0.0
aF0.0
aF0.0
aF0.0
aF0.0
aF0.0
aF0.0
aF0.0
aF0.0
aF0.0
aF0.0
aF0.0
aF0.0
aF0.0
aF0.0
aF0.0
aF0.0
aF0.0
aF0.0
aF0.0
aF0.0
aF0.0
aF0.0
aF0.0
aF0.0
aF0.0
aF0.0
aF0.0
aF0.0
aF0.0
aF0.0
aF0.0
aF0.0
aF0.0
aF0.0
aF0.0
aF0.0
aF0.0
aF0.0
aF0.0
aF0.0
aF0.0
aF0.0
aF0.0
aF0.0
aF0.0
aF0.0
aF0.0
aF0.0
aF0.0
aF0.0
aF0.0
aF0.0
aF0.0
aF0.0
aF0.0
aF0.0
aF0.0
aF0.0
aF0.0
aF0.0
aF0.0
aF0.0
aF0.0
aF0.0
aF0.0
aF0.0
aF0.0
aF0.0
aF0.0
aF0.0
aF0.0
aF0.0
aF0.0
aF0.0
aF0.0
aF0.0
aF0.0
aF0.0
aF0.0
aF0.0
aF0.0
aF0.0
aF0.0
aF0.0
aF0.0
aF0.0
aF0.0
aF0.0
aF0.0
aF0.0
aF0.0
aF0.0
aF0.0
aF0.0
aF0.0
aF0.0
aF0.0
aF0.0
aF0.0
aF0.0
aF0.0
aF0.0
aF0.0
aF0.0
aF0.0
aF0.0
aF0.0
aF0.0
aF0.0
aF0.0
aF0.0
aF0.0
aF0.0
aF0.0
aF0.0
aF0.0
aF0.0
aF0.0
aF0.0
aF0.0
aF0.0
aF0.0
aF0.0
aF0.0
aF0.0
aF0.0
aF0.0
aF0.0
aF0.0
aF0.0
aF0.0
aF0.0
aF0.0
aF0.0
aF0.0
aF0.0
aF0.0
aF0.0
aF0.0
aF0.0
aF0.0
aF0.0
aF0.0
aF0.0
aF0.0
aF0.0
aF0.0
aF0.0
aF0.0
aF0.0
aF0.0
aF0.0
aF0.0
aF0.0
aF0.0
aF0.0
aF0.0
aF0.0
aF0.0
aF0.0
aF0.0
aF0.0
aF0.0
aF0.0
aF0.0
aF0.0
aF0.0
aF0.0
aF0.0
aF0.0
aF0.0
aF0.0
aF0.0
aF0.0
aF0.0
aF0.0
aF0.0
aF0.0
aF0.0
aF0.0
aF0.0
aF0.0
aF0.0
aF0.0
aF0.0
aF0.0
aF0.0
aF0.8353848630166067
aF0.0
aF0.0
aF0.0
aF0.0
aF0.0
aF0.0
aF0.0
aF0.0
aF0.0
aF0.0
aF0.0
aF0.0
aF0.0
aF0.0
aF0.0
aF0.0
aF0.0
aF0.0
aF0.0
aF0.0
aF0.0
aF0.0
aF0.0
aF0.0
aF0.0
aF0.0
aF0.0
aF0.0
aF0.0
aF0.0
aF0.0
aF0.0
aF0.0
aF0.0
aF0.0
aF0.0
aF0.0
aF0.0
aF0.0
aF0.0
aF0.0
aF0.0
aF0.0
aF0.0
aF0.0
aF0.0
aF0.0
aF0.0
aF0.0
aF0.0
aF0.0
aF0.0
aF0.0
aF0.0
aF0.0
aF0.0
aF0.0
aF0.0
aF0.0
aF0.0
aF0.0
aF0.0
aF0.0
aF0.0
aF0.0
aF0.0
aF0.0
aF0.0
aF0.0
aF0.0
aF0.0
aF0.0
aF0.0
aF0.0
aF0.0
aF0.0
aF0.0
aF0.0
aF0.0
aF0.0
aF0.0
aF0.0
aF0.0
aF0.0
aF0.0
aF0.0
aF0.0
aF0.0
aF0.0
aF0.0
aF0.0
aF0.0
aF0.0
aF0.0
aF0.0
aF0.0
aF0.0
aF0.0
aF0.0
aF0.0
aF0.0
aF0.0
aF0.0
aF0.0
aF0.0
aF0.0
aF0.0
aF0.0
aF0.0
aF0.0
aF0.0
aF0.0
aF0.0
aF0.0
aF0.0
aF0.0
aF0.0
aF0.0
aF0.0
aF0.0
aF0.0
aF0.0
aF0.0
aF0.0
aF0.0
aF0.0
aF0.0
aF0.0
aF0.0
aF0.0
aF0.0
aF0.0
aF0.0
aF0.0
aF0.0
aF0.0
aF0.0
aF0.0
aF0.0
aF0.0
aF0.0
aF0.0
aF0.0
aF0.0
aF0.0
aF0.0
aF0.0
aF0.0
aF0.0
aF0.0
aF0.0
aF0.0
aF0.0
aF0.0
aF0.0
aF0.0
aF0.0
aF0.0
aF0.0
aF0.0
aF0.0
aF0.0
aF0.0
aF0.0
aF0.0
aF0.0
aF0.0
aF0.0
aF0.0
aF0.0
aF0.0
aF0.0
aF0.0
aF0.0
aF0.0
aF0.0
aF0.0
aF0.0
aF0.0
aF0.0
aF0.0
aF0.0
aF0.0
aF0.0
aF0.0
aF0.0
aF0.0
aF0.0
aF0.0
aF0.0
aF0.0
aF0.0
aF0.0
aF0.0
aF0.0
aF0.0
aF0.0
aaa(lp4
(lp5
F2.2701809899493965e-05
aF2.2701809899493965e-05
aF2.2701809899493965e-05
aF2.2701809899493965e-05
aF2.2701809899493965e-05
aF2.2701809899493965e-05
aF2.2701809899493965e-05
aF2.2701809899493965e-05
aF2.2701809899493965e-05
aF2.2701809899493965e-05
aF2.2701809899493965e-05
aF2.2701809899493965e-05
aF2.2701809899493965e-05
aF2.2701809899493965e-05
aF2.2701809899493965e-05
aF2.2701809899493965e-05
aF2.2701809899493965e-05
aF2.2701809899493965e-05
aF2.2701809899493965e-05
aF2.2701809899493965e-05
aF2.2701809899493965e-05
aF2.2701809899493965e-05
aF2.2701809899493965e-05
aF2.2701809899493965e-05
aF2.2701809899493965e-05
aF2.2701809899493965e-05
aF2.2701809899493965e-05
aF2.2701809899493965e-05
aF2.2701809899493965e-05
aF2.2701809899493965e-05
aF2.2701809899493965e-05
aF2.2701809899493965e-05
aF2.2701809899493965e-05
aF2.2701809899493965e-05
aF2.2701809899493965e-05
aF2.2701809899493965e-05
aF2.2701809899493965e-05
aF2.2701809899493965e-05
aF2.2701809899493965e-05
aF2.2701809899493965e-05
aF2.2701809899493965e-05
aF2.2701809899493965e-05
aF2.2701809899493965e-05
aF2.2701809899493965e-05
aF2.2701809899493965e-05
aF2.2701809899493965e-05
aF2.2701809899493965e-05
aF2.2701809899493965e-05
aF2.2701809899493965e-05
aF2.2701809899493965e-05
aF2.2701809899493965e-05
aF2.2701809899493965e-05
aF2.2701809899493965e-05
aF2.2701809899493965e-05
aF2.2701809899493965e-05
aF2.2701809899493965e-05
aF2.2701809899493965e-05
aF2.2701809899493965e-05
aF2.2701809899493965e-05
aF2.2701809899493965e-05
aF2.2701809899493965e-05
aF2.2701809899493965e-05
aF2.2701809899493965e-05
aF2.2701809899493965e-05
aF2.2701809899493965e-05
aF2.2701809899493965e-05
aF2.2701809899493965e-05
aF2.2701809899493965e-05
aF2.2701809899493965e-05
aF2.2701809899493965e-05
aF2.2701809899493965e-05
aF2.2701809899493965e-05
aF2.2701809899493965e-05
aF2.2701809899493965e-05
aF2.2701809899493965e-05
aF2.2701809899493965e-05
aF2.2701809899493965e-05
aF2.2701809899493965e-05
aF2.2701809899493965e-05
aF2.2701809899493965e-05
aF2.2701809899493965e-05
aF2.2701809899493965e-05
aF2.2701809899493965e-05
aF2.2701809899493965e-05
aF2.2701809899493965e-05
aF2.2701809899493965e-05
aF2.2701809899493965e-05
aF2.2701809899493965e-05
aF2.2701809899493965e-05
aF2.2701809899493965e-05
aF2.2701809899493965e-05
aF2.2701809899493965e-05
aF2.2701809899493965e-05
aF2.2701809899493965e-05
aF2.2701809899493965e-05
aF2.2701809899493965e-05
aF2.2701809899493965e-05
aF2.2701809899493965e-05
aF2.2701809899493965e-05
aF2.2701809899493965e-05
aF2.2701809899493965e-05
aF2.2701809899493965e-05
aF2.2701809899493965e-05
aF2.2701809899493965e-05
aF2.2701809899493965e-05
aF2.2701809899493965e-05
aF2.2701809899493965e-05
aF2.2701809899493965e-05
aF2.2701809899493965e-05
aF2.2701809899493965e-05
aF2.2701809899493965e-05
aF2.2701809899493965e-05
aF2.2701809899493965e-05
aF2.2701809899493965e-05
aF2.2701809899493965e-05
aF2.2701809899493965e-05
aF2.2701809899493965e-05
aF2.2701809899493965e-05
aF2.2701809899493965e-05
aF2.2701809899493965e-05
aF2.2701809899493965e-05
aF2.2701809899493965e-05
aF2.2701809899493965e-05
aF2.2701809899493965e-05
aF2.2701809899493965e-05
aF2.2701809899493965e-05
aF2.2701809899493965e-05
aF2.2701809899493965e-05
aF2.2701809899493965e-05
aF2.2701809899493965e-05
aF2.2701809899493965e-05
aF2.2701809899493965e-05
aF2.2701809899493965e-05
aF2.2701809899493965e-05
aF2.2701809899493965e-05
aF2.2701809899493965e-05
aF2.2701809899493965e-05
aF2.2701809899493965e-05
aF2.2701809899493965e-05
aF2.2701809899493965e-05
aF2.2701809899493965e-05
aF2.2701809899493965e-05
aF2.2701809899493965e-05
aF2.2701809899493965e-05
aF2.2701809899493965e-05
aF2.2701809899493965e-05
aF2.2701809899493965e-05
aF2.2701809899493965e-05
aF2.2701809899493965e-05
aF2.2701809899493965e-05
aF2.2701809899493965e-05
aF2.2701809899493965e-05
aF2.2701809899493965e-05
aF2.2701809899493965e-05
aF2.2701809899493965e-05
aF2.2701809899493965e-05
aF2.2701809899493965e-05
aF2.2701809899493965e-05
aF2.2701809899493965e-05
aF2.2701809899493965e-05
aF2.2701809899493965e-05
aF2.2701809899493965e-05
aF2.2701809899493965e-05
aF2.2701809899493965e-05
aF2.2701809899493965e-05
aF2.2701809899493965e-05
aF2.2701809899493965e-05
aF2.2701809899493965e-05
aF2.2701809899493965e-05
aF2.2701809899493965e-05
aF2.2701809899493965e-05
aF2.2701809899493965e-05
aF2.2701809899493965e-05
aF2.2701809899493965e-05
aF2.2701809899493965e-05
aF2.2701809899493965e-05
aF2.2701809899493965e-05
aF2.2701809899493965e-05
aF2.2701809899493965e-05
aF2.2701809899493965e-05
aF2.2701809899493965e-05
aF2.2701809899493965e-05
aF2.2701809899493965e-05
aF2.2701809899493965e-05
aF2.2701809899493965e-05
aF2.2701809899493965e-05
aF2.2701809899493965e-05
aF2.2701809899493965e-05
aF2.2701809899493965e-05
aF2.2701809899493965e-05
aF2.2701809899493965e-05
aF2.2701809899493965e-05
aF2.2701809899493965e-05
aF2.2701809899493965e-05
aF2.2701809899493965e-05
aF2.2701809899493965e-05
aF2.2701809899493965e-05
aF2.2701809899493965e-05
aF2.2701809899493965e-05
aF2.2701809899493965e-05
aF2.2701809899493965e-05
aF2.2701809899493965e-05
aF2.2701809899493965e-05
aF2.2701809899493965e-05
aF2.2701809899493965e-05
aF2.2701809899493965e-05
aF2.2701809899493965e-05
aF2.2701809899493965e-05
aF2.2701809899493965e-05
aF2.2701809899493965e-05
aF2.2701809899493965e-05
aF2.2701809899493965e-05
aF2.2701809899493965e-05
aF2.2701809899493965e-05
aF2.2701809899493965e-05
aF2.2701809899493965e-05
aF2.2701809899493965e-05
aF2.2701809899493965e-05
aF2.2701809899493965e-05
aF2.2701809899493965e-05
aF2.2701809899493965e-05
aF2.2701809899493965e-05
aF2.2701809899493965e-05
aF2.2701809899493965e-05
aF2.2701809899493965e-05
aF2.2701809899493965e-05
aF2.2701809899493965e-05
aF2.2701809899493965e-05
aF2.2701809899493965e-05
aF2.2701809899493965e-05
aF2.2701809899493965e-05
aF2.2701809899493965e-05
aF2.2701809899493965e-05
aF2.2701809899493965e-05
aF2.2701809899493965e-05
aF2.2701809899493965e-05
aF2.2701809899493965e-05
aF2.2701809899493965e-05
aF2.2701809899493965e-05
aF2.2701809899493965e-05
aF2.2701809899493965e-05
aF2.2701809899493965e-05
aF2.2701809899493965e-05
aF2.2701809899493965e-05
aF2.2701809899493965e-05
aF2.2701809899493965e-05
aF2.2701809899493965e-05
aF2.2701809899493965e-05
aF2.2701809899493965e-05
aF2.2701809899493965e-05
aF2.2701809899493965e-05
aF2.2701809899493965e-05
aF2.2701809899493965e-05
aF2.2701809899493965e-05
aF2.2701809899493965e-05
aF2.2701809899493965e-05
aF2.2701809899493965e-05
aF2.2701809899493965e-05
aF2.2701809899493965e-05
aF2.2701809899493965e-05
aF2.2701809899493965e-05
aF2.2701809899493965e-05
aF2.2701809899493965e-05
aF2.2701809899493965e-05
aF2.2701809899493965e-05
aF2.2701809899493965e-05
aF2.2701809899493965e-05
aF2.2701809899493965e-05
aF2.2701809899493965e-05
aF2.2701809899493965e-05
aF2.2701809899493965e-05
aF2.2701809899493965e-05
aF2.2701809899493965e-05
aF2.2701809899493965e-05
aF2.2701809899493965e-05
aF2.2701809899493965e-05
aF2.2701809899493965e-05
aF2.2701809899493965e-05
aF2.2701809899493965e-05
aF2.2701809899493965e-05
aF2.2701809899493965e-05
aF2.2701809899493965e-05
aF2.2701809899493965e-05
aF2.2701809899493965e-05
aF2.2701809899493965e-05
aF2.2701809899493965e-05
aF2.2701809899493965e-05
aF2.2701809899493965e-05
aF2.2701809899493965e-05
aF2.2701809899493965e-05
aF2.2701809899493965e-05
aF2.2701809899493965e-05
aF2.2701809899493965e-05
aF2.2701809899493965e-05
aF2.2701809899493965e-05
aF2.2701809899493965e-05
aF2.2701809899493965e-05
aF2.2701809899493965e-05
aF2.2701809899493965e-05
aF2.2701809899493965e-05
aF2.2701809899493965e-05
aF2.2701809899493965e-05
aF2.2701809899493965e-05
aF2.2701809899493965e-05
aF2.2701809899493965e-05
aF2.2701809899493965e-05
aF2.2701809899493965e-05
aF2.2701809899493965e-05
aF2.2701809899493965e-05
aF2.2701809899493965e-05
aF2.2701809899493965e-05
aF2.2701809899493965e-05
aF2.2701809899493965e-05
aF2.2701809899493965e-05
aF2.2701809899493965e-05
aF2.2701809899493965e-05
aF2.2701809899493965e-05
aF2.2701809899493965e-05
aF2.2701809899493965e-05
aF2.2701809899493965e-05
aF2.2701809899493965e-05
aF2.2701809899493965e-05
aF2.2701809899493965e-05
aF2.2701809899493965e-05
aF2.2701809899493965e-05
aF2.2701809899493965e-05
aF2.2701809899493965e-05
aF2.2701809899493965e-05
aF2.2701809899493965e-05
aF2.2701809899493965e-05
aF2.2701809899493965e-05
aF2.2701809899493965e-05
aF2.2701809899493965e-05
aF2.2701809899493965e-05
aF2.2701809899493965e-05
aF2.2701809899493965e-05
aF2.2701809899493965e-05
aF2.2701809899493965e-05
aF2.2701809899493965e-05
aF2.2701809899493965e-05
aF2.2701809899493965e-05
aF2.2701809899493965e-05
aF2.2701809899493965e-05
aF2.2701809899493965e-05
aF2.2701809899493965e-05
aF2.2701809899493965e-05
aF2.2701809899493965e-05
aF2.2701809899493965e-05
aF2.2701809899493965e-05
aF2.2701809899493965e-05
aF2.2701809899493965e-05
aF2.2701809899493965e-05
aF2.2701809899493965e-05
aF2.2701809899493965e-05
aF2.2701809899493965e-05
aF2.2701809899493965e-05
aF2.2701809899493965e-05
aF2.2701809899493965e-05
aF2.2701809899493965e-05
aF2.2701809899493965e-05
aF2.2701809899493965e-05
aF2.2701809899493965e-05
aF2.2701809899493965e-05
aF2.2701809899493965e-05
aF2.2701809899493965e-05
aF2.2701809899493965e-05
aF2.2701809899493965e-05
aF2.2701809899493965e-05
aF2.2701809899493965e-05
aF2.2701809899493965e-05
aF2.2701809899493965e-05
aF2.2701809899493965e-05
aF2.2701809899493965e-05
aF2.2701809899493965e-05
aF2.2701809899493965e-05
aF2.2701809899493965e-05
aF2.2701809899493965e-05
aF2.2701809899493965e-05
aF2.2701809899493965e-05
aF2.2701809899493965e-05
aF2.2701809899493965e-05
aF2.2701809899493965e-05
aF2.2701809899493965e-05
aF2.2701809899493965e-05
aF2.2701809899493965e-05
aF2.2701809899493965e-05
aF2.2701809899493965e-05
aF2.2701809899493965e-05
aF2.2701809899493965e-05
aF2.2701809899493965e-05
aF2.2701809899493965e-05
aF2.2701809899493965e-05
aF2.2701809899493965e-05
aF2.2701809899493965e-05
aF2.2701809899493965e-05
aF2.2701809899493965e-05
aF2.2701809899493965e-05
aF2.2701809899493965e-05
aF2.2701809899493965e-05
aF2.2701809899493965e-05
aF2.2701809899493965e-05
aF2.2701809899493965e-05
aF2.2701809899493965e-05
aF2.2701809899493965e-05
aF2.2701809899493965e-05
aF2.2701809899493965e-05
aF2.2701809899493965e-05
aF2.2701809899493965e-05
aF2.2701809899493965e-05
aF2.2701809899493965e-05
aF2.2701809899493965e-05
aF2.2701809899493965e-05
aF2.2701809899493965e-05
aF2.2701809899493965e-05
aF2.2701809899493965e-05
aF2.2701809899493965e-05
aF2.2701809899493965e-05
aF2.2701809899493965e-05
aF2.2701809899493965e-05
aF2.2701809899493965e-05
aF2.2701809899493965e-05
aF2.2701809899493965e-05
aF2.2701809899493965e-05
aF2.2701809899493965e-05
aF2.2701809899493965e-05
aF2.2701809899493965e-05
aF2.2701809899493965e-05
aF2.2701809899493965e-05
aF2.2701809899493965e-05
aF2.2701809899493965e-05
aF2.2701809899493965e-05
aF2.2701809899493965e-05
aF2.2701809899493965e-05
aF2.2701809899493965e-05
aF2.2701809899493965e-05
aF2.2701809899493965e-05
aF2.2701809899493965e-05
aF2.2701809899493965e-05
aF2.2701809899493965e-05
aF2.2701809899493965e-05
aF2.2701809899493965e-05
aF2.2701809899493965e-05
aF2.2701809899493965e-05
aF2.2701809899493965e-05
aF2.2701809899493965e-05
aF2.2701809899493965e-05
aF2.2701809899493965e-05
aF2.2701809899493965e-05
aF2.2701809899493965e-05
aF2.2701809899493965e-05
aF2.2701809899493965e-05
aF2.2701809899493965e-05
aF2.2701809899493965e-05
aF2.2701809899493965e-05
aF2.2701809899493965e-05
aF2.2701809899493965e-05
aF2.2701809899493965e-05
aF2.2701809899493965e-05
aF2.2701809899493965e-05
aF2.2701809899493965e-05
aF2.2701809899493965e-05
aF2.2701809899493965e-05
aF2.2701809899493965e-05
aF2.2701809899493965e-05
aF2.2701809899493965e-05
aF2.2701809899493965e-05
aF2.2701809899493965e-05
aF2.2701809899493965e-05
aF2.2701809899493965e-05
aF2.2701809899493965e-05
aF2.2701809899493965e-05
aF2.2701809899493965e-05
aF2.2701809899493965e-05
aF2.2701809899493965e-05
aF2.2701809899493965e-05
aF2.2701809899493965e-05
aF2.2701809899493965e-05
aF2.2701809899493965e-05
aF2.2701809899493965e-05
aF2.2701809899493965e-05
aF2.2701809899493965e-05
aF2.2701809899493965e-05
aF2.2701809899493965e-05
aF2.2701809899493965e-05
aF2.2701809899493965e-05
aF2.2701809899493965e-05
aF2.2701809899493965e-05
aF2.2701809899493965e-05
aF2.2701809899493965e-05
aF2.2701809899493965e-05
aF2.2701809899493965e-05
aF2.2701809899493965e-05
aF2.2701809899493965e-05
aF2.2701809899493965e-05
aF2.2701809899493965e-05
aF2.2701809899493965e-05
aF2.2701809899493965e-05
aF2.2701809899493965e-05
aF2.2701809899493965e-05
aF2.2701809899493965e-05
aF2.2701809899493965e-05
aF2.2701809899493965e-05
aF2.2701809899493965e-05
aF2.2701809899493965e-05
aF2.2701809899493965e-05
aF2.2701809899493965e-05
aF2.2701809899493965e-05
aF2.2701809899493965e-05
aF2.2701809899493965e-05
aF2.2701809899493965e-05
aF2.2701809899493965e-05
aF2.2701809899493965e-05
aF2.2701809899493965e-05
aF2.2701809899493965e-05
aF2.2701809899493965e-05
aF2.2701809899493965e-05
aF2.2701809899493965e-05
aF2.2701809899493965e-05
aF2.2701809899493965e-05
aF2.2701809899493965e-05
aF2.2701809899493965e-05
aF2.2701809899493965e-05
aF2.2701809899493965e-05
aF2.2701809899493965e-05
aF2.2701809899493965e-05
aF2.2701809899493965e-05
aF2.2701809899493965e-05
aF2.2701809899493965e-05
aF2.2701809899493965e-05
aF2.2701809899493965e-05
aF2.2701809899493965e-05
aF2.2701809899493965e-05
aF2.2701809899493965e-05
aF2.2701809899493965e-05
aF2.2701809899493965e-05
aF2.2701809899493965e-05
aF2.2701809899493965e-05
aF2.2701809899493965e-05
aF2.2701809899493965e-05
aF2.2701809899493965e-05
aF2.2701809899493965e-05
aF2.2701809899493965e-05
aF2.2701809899493965e-05
aF2.2701809899493965e-05
aF2.2701809899493965e-05
aF2.2701809899493965e-05
aF2.2701809899493965e-05
aF2.2701809899493965e-05
aF2.2701809899493965e-05
aF2.2701809899493965e-05
aF2.2701809899493965e-05
aF2.2701809899493965e-05
aF2.2701809899493965e-05
aF2.2701809899493965e-05
aF2.2701809899493965e-05
aF2.2701809899493965e-05
aF2.2701809899493965e-05
aF2.2701809899493965e-05
aF2.2701809899493965e-05
aF2.2701809899493965e-05
aF2.2701809899493965e-05
aF2.2701809899493965e-05
aF2.2701809899493965e-05
aF2.2701809899493965e-05
aF2.2701809899493965e-05
aF2.2701809899493965e-05
aF2.2701809899493965e-05
aF2.2701809899493965e-05
aF2.2701809899493965e-05
aF2.2701809899493965e-05
aF2.2701809899493965e-05
aF2.2701809899493965e-05
aF2.2701809899493965e-05
aF2.2701809899493965e-05
aF2.2701809899493965e-05
aF2.2701809899493965e-05
aF2.2701809899493965e-05
aF2.2701809899493965e-05
aF2.2701809899493965e-05
aF2.2701809899493965e-05
aF2.2701809899493965e-05
aF2.2701809899493965e-05
aF2.2701809899493965e-05
aF2.2701809899493965e-05
aF2.2701809899493965e-05
aF2.2701809899493965e-05
aF2.2701809899493965e-05
aF2.2701809899493965e-05
aF2.2701809899493965e-05
aF2.2701809899493965e-05
aF2.2701809899493965e-05
aF2.2701809899493965e-05
aF2.2701809899493965e-05
aF2.2701809899493965e-05
aF2.2701809899493965e-05
aF2.2701809899493965e-05
aF2.2701809899493965e-05
aF2.2701809899493965e-05
aF2.2701809899493965e-05
aF2.2701809899493965e-05
aF2.2701809899493965e-05
aF2.2701809899493965e-05
aF2.2701809899493965e-05
aF2.2701809899493965e-05
aF2.2701809899493965e-05
aF2.2701809899493965e-05
aF2.2701809899493965e-05
aF2.2701809899493965e-05
aF2.2701809899493965e-05
aF2.2701809899493965e-05
aF2.2701809899493965e-05
aF2.2701809899493965e-05
aF2.2701809899493965e-05
aF2.2701809899493965e-05
aF2.2701809899493965e-05
aF2.2701809899493965e-05
aF2.2701809899493965e-05
aF2.2701809899493965e-05
aF2.2701809899493965e-05
aF2.2701809899493965e-05
aF2.2701809899493965e-05
aF2.2701809899493965e-05
aF2.2701809899493965e-05
aF2.2701809899493965e-05
aF2.2701809899493965e-05
aF2.2701809899493965e-05
aF2.2701809899493965e-05
aF2.2701809899493965e-05
aF2.2701809899493965e-05
aF2.2701809899493965e-05
aF2.2701809899493965e-05
aF2.2701809899493965e-05
aF2.2701809899493965e-05
aF2.2701809899493965e-05
aF2.2701809899493965e-05
aF2.2701809899493965e-05
aF2.2701809899493965e-05
aF2.2701809899493965e-05
aF2.2701809899493965e-05
aF2.2701809899493965e-05
aa(lp6
F2.2701809899493965e-05
aF2.2701809899493965e-05
aF2.2701809899493965e-05
aF2.2701809899493965e-05
aF2.2701809899493965e-05
aF2.2701809899493965e-05
aF2.2701809899493965e-05
aF2.2701809899493965e-05
aF2.2701809899493965e-05
aF2.2701809899493965e-05
aF2.2701809899493965e-05
aF2.2701809899493965e-05
aF2.2701809899493965e-05
aF2.2701809899493965e-05
aF2.2701809899493965e-05
aF2.2701809899493965e-05
aF2.2701809899493965e-05
aF2.2701809899493965e-05
aF2.2701809899493965e-05
aF2.2701809899493965e-05
aF2.2701809899493965e-05
aF2.2701809899493965e-05
aF2.2701809899493965e-05
aF2.2701809899493965e-05
aF2.2701809899493965e-05
aF2.2701809899493965e-05
aF2.2701809899493965e-05
aF2.2701809899493965e-05
aF2.2701809899493965e-05
aF2.2701809899493965e-05
aF2.2701809899493965e-05
aF2.2701809899493965e-05
aF2.2701809899493965e-05
aF2.2701809899493965e-05
aF2.2701809899493965e-05
aF2.2701809899493965e-05
aF2.2701809899493965e-05
aF2.2701809899493965e-05
aF2.2701809899493965e-05
aF2.2701809899493965e-05
aF2.2701809899493965e-05
aF2.2701809899493965e-05
aF2.2701809899493965e-05
aF2.2701809899493965e-05
aF2.2701809899493965e-05
aF2.2701809899493965e-05
aF2.2701809899493965e-05
aF2.2701809899493965e-05
aF2.2701809899493965e-05
aF2.2701809899493965e-05
aF2.2701809899493965e-05
aF2.2701809899493965e-05
aF2.2701809899493965e-05
aF2.2701809899493965e-05
aF2.2701809899493965e-05
aF2.2701809899493965e-05
aF2.2701809899493965e-05
aF2.2701809899493965e-05
aF2.2701809899493965e-05
aF2.2701809899493965e-05
aF2.2701809899493965e-05
aF2.2701809899493965e-05
aF2.2701809899493965e-05
aF2.2701809899493965e-05
aF2.2701809899493965e-05
aF2.2701809899493965e-05
aF2.2701809899493965e-05
aF2.2701809899493965e-05
aF2.2701809899493965e-05
aF2.2701809899493965e-05
aF2.2701809899493965e-05
aF2.2701809899493965e-05
aF2.2701809899493965e-05
aF2.2701809899493965e-05
aF2.2701809899493965e-05
aF2.2701809899493965e-05
aF2.2701809899493965e-05
aF2.2701809899493965e-05
aF2.2701809899493965e-05
aF2.2701809899493965e-05
aF2.2701809899493965e-05
aF2.2701809899493965e-05
aF2.2701809899493965e-05
aF2.2701809899493965e-05
aF2.2701809899493965e-05
aF2.2701809899493965e-05
aF2.2701809899493965e-05
aF2.2701809899493965e-05
aF2.2701809899493965e-05
aF2.2701809899493965e-05
aF2.2701809899493965e-05
aF2.2701809899493965e-05
aF2.2701809899493965e-05
aF2.2701809899493965e-05
aF2.2701809899493965e-05
aF2.2701809899493965e-05
aF2.2701809899493965e-05
aF2.2701809899493965e-05
aF2.2701809899493965e-05
aF2.2701809899493965e-05
aF2.2701809899493965e-05
aF2.2701809899493965e-05
aF2.2701809899493965e-05
aF2.2701809899493965e-05
aF2.2701809899493965e-05
aF2.2701809899493965e-05
aF2.2701809899493965e-05
aF2.2701809899493965e-05
aF2.2701809899493965e-05
aF2.2701809899493965e-05
aF2.2701809899493965e-05
aF2.2701809899493965e-05
aF2.2701809899493965e-05
aF2.2701809899493965e-05
aF2.2701809899493965e-05
aF2.2701809899493965e-05
aF2.2701809899493965e-05
aF2.2701809899493965e-05
aF2.2701809899493965e-05
aF2.2701809899493965e-05
aF2.2701809899493965e-05
aF2.2701809899493965e-05
aF2.2701809899493965e-05
aF2.2701809899493965e-05
aF2.2701809899493965e-05
aF2.2701809899493965e-05
aF2.2701809899493965e-05
aF2.2701809899493965e-05
aF2.2701809899493965e-05
aF2.2701809899493965e-05
aF2.2701809899493965e-05
aF2.2701809899493965e-05
aF2.2701809899493965e-05
aF2.2701809899493965e-05
aF2.2701809899493965e-05
aF2.2701809899493965e-05
aF2.2701809899493965e-05
aF2.2701809899493965e-05
aF2.2701809899493965e-05
aF2.2701809899493965e-05
aF2.2701809899493965e-05
aF2.2701809899493965e-05
aF2.2701809899493965e-05
aF2.2701809899493965e-05
aF2.2701809899493965e-05
aF2.2701809899493965e-05
aF2.2701809899493965e-05
aF2.2701809899493965e-05
aF2.2701809899493965e-05
aF2.2701809899493965e-05
aF2.2701809899493965e-05
aF2.2701809899493965e-05
aF2.2701809899493965e-05
aF2.2701809899493965e-05
aF2.2701809899493965e-05
aF2.2701809899493965e-05
aF2.2701809899493965e-05
aF2.2701809899493965e-05
aF2.2701809899493965e-05
aF2.2701809899493965e-05
aF2.2701809899493965e-05
aF2.2701809899493965e-05
aF2.2701809899493965e-05
aF2.2701809899493965e-05
aF2.2701809899493965e-05
aF2.2701809899493965e-05
aF2.2701809899493965e-05
aF2.2701809899493965e-05
aF2.2701809899493965e-05
aF2.2701809899493965e-05
aF2.2701809899493965e-05
aF2.2701809899493965e-05
aF2.2701809899493965e-05
aF2.2701809899493965e-05
aF2.2701809899493965e-05
aF2.2701809899493965e-05
aF2.2701809899493965e-05
aF2.2701809899493965e-05
aF2.2701809899493965e-05
aF2.2701809899493965e-05
aF2.2701809899493965e-05
aF2.2701809899493965e-05
aF2.2701809899493965e-05
aF2.2701809899493965e-05
aF2.2701809899493965e-05
aF2.2701809899493965e-05
aF2.2701809899493965e-05
aF2.2701809899493965e-05
aF2.2701809899493965e-05
aF2.2701809899493965e-05
aF2.2701809899493965e-05
aF2.2701809899493965e-05
aF2.2701809899493965e-05
aF2.2701809899493965e-05
aF2.2701809899493965e-05
aF2.2701809899493965e-05
aF2.2701809899493965e-05
aF2.2701809899493965e-05
aF2.2701809899493965e-05
aF2.2701809899493965e-05
aF2.2701809899493965e-05
aF2.2701809899493965e-05
aF2.2701809899493965e-05
aF2.2701809899493965e-05
aF2.2701809899493965e-05
aF2.2701809899493965e-05
aF2.2701809899493965e-05
aF2.2701809899493965e-05
aF2.2701809899493965e-05
aF2.2701809899493965e-05
aF2.2701809899493965e-05
aF2.2701809899493965e-05
aF2.2701809899493965e-05
aF2.2701809899493965e-05
aF2.2701809899493965e-05
aF2.2701809899493965e-05
aF2.2701809899493965e-05
aF2.2701809899493965e-05
aF2.2701809899493965e-05
aF2.2701809899493965e-05
aF2.2701809899493965e-05
aF2.2701809899493965e-05
aF2.2701809899493965e-05
aF2.2701809899493965e-05
aF2.2701809899493965e-05
aF2.2701809899493965e-05
aF2.2701809899493965e-05
aF2.2701809899493965e-05
aF2.2701809899493965e-05
aF2.2701809899493965e-05
aF2.2701809899493965e-05
aF2.2701809899493965e-05
aF2.2701809899493965e-05
aF2.2701809899493965e-05
aF2.2701809899493965e-05
aF2.2701809899493965e-05
aF2.2701809899493965e-05
aF2.2701809899493965e-05
aF2.2701809899493965e-05
aF2.2701809899493965e-05
aF2.2701809899493965e-05
aF2.2701809899493965e-05
aF2.2701809899493965e-05
aF2.2701809899493965e-05
aF2.2701809899493965e-05
aF2.2701809899493965e-05
aF2.2701809899493965e-05
aF2.2701809899493965e-05
aF2.2701809899493965e-05
aF2.2701809899493965e-05
aF2.2701809899493965e-05
aF2.2701809899493965e-05
aF2.2701809899493965e-05
aF2.2701809899493965e-05
aF2.2701809899493965e-05
aF2.2701809899493965e-05
aF2.2701809899493965e-05
aF2.2701809899493965e-05
aF2.2701809899493965e-05
aF2.2701809899493965e-05
aF2.2701809899493965e-05
aF2.2701809899493965e-05
aF2.2701809899493965e-05
aF2.2701809899493965e-05
aF2.2701809899493965e-05
aF2.2701809899493965e-05
aF2.2701809899493965e-05
aF2.2701809899493965e-05
aF2.2701809899493965e-05
aF2.2701809899493965e-05
aF2.2701809899493965e-05
aF2.2701809899493965e-05
aF2.2701809899493965e-05
aF2.2701809899493965e-05
aF2.2701809899493965e-05
aF2.2701809899493965e-05
aF2.2701809899493965e-05
aF2.2701809899493965e-05
aF2.2701809899493965e-05
aF2.2701809899493965e-05
aF2.2701809899493965e-05
aF2.2701809899493965e-05
aF2.2701809899493965e-05
aF2.2701809899493965e-05
aF2.2701809899493965e-05
aF2.2701809899493965e-05
aF2.2701809899493965e-05
aF2.2701809899493965e-05
aF2.2701809899493965e-05
aF2.2701809899493965e-05
aF2.2701809899493965e-05
aF2.2701809899493965e-05
aF2.2701809899493965e-05
aF2.2701809899493965e-05
aF2.2701809899493965e-05
aF2.2701809899493965e-05
aF2.2701809899493965e-05
aF2.2701809899493965e-05
aF2.2701809899493965e-05
aF2.2701809899493965e-05
aF2.2701809899493965e-05
aF2.2701809899493965e-05
aF2.2701809899493965e-05
aF2.2701809899493965e-05
aF2.2701809899493965e-05
aF2.2701809899493965e-05
aF2.2701809899493965e-05
aF2.2701809899493965e-05
aF2.2701809899493965e-05
aF2.2701809899493965e-05
aF2.2701809899493965e-05
aF2.2701809899493965e-05
aF2.2701809899493965e-05
aF2.2701809899493965e-05
aF2.2701809899493965e-05
aF2.2701809899493965e-05
aF2.2701809899493965e-05
aF2.2701809899493965e-05
aF2.2701809899493965e-05
aF2.2701809899493965e-05
aF2.2701809899493965e-05
aF2.2701809899493965e-05
aF2.2701809899493965e-05
aF2.2701809899493965e-05
aF2.2701809899493965e-05
aF2.2701809899493965e-05
aF2.2701809899493965e-05
aF2.2701809899493965e-05
aF2.2701809899493965e-05
aF2.2701809899493965e-05
aF2.2701809899493965e-05
aF2.2701809899493965e-05
aF2.2701809899493965e-05
aF2.2701809899493965e-05
aF2.2701809899493965e-05
aF2.2701809899493965e-05
aF2.2701809899493965e-05
aF2.2701809899493965e-05
aF2.2701809899493965e-05
aF2.2701809899493965e-05
aF2.2701809899493965e-05
aF2.2701809899493965e-05
aF2.2701809899493965e-05
aF2.2701809899493965e-05
aF2.2701809899493965e-05
aF2.2701809899493965e-05
aF2.2701809899493965e-05
aF2.2701809899493965e-05
aF2.2701809899493965e-05
aF2.2701809899493965e-05
aF2.2701809899493965e-05
aF2.2701809899493965e-05
aF2.2701809899493965e-05
aF2.2701809899493965e-05
aF2.2701809899493965e-05
aF2.2701809899493965e-05
aF2.2701809899493965e-05
aF2.2701809899493965e-05
aF2.2701809899493965e-05
aF2.2701809899493965e-05
aF2.2701809899493965e-05
aF2.2701809899493965e-05
aF2.2701809899493965e-05
aF2.2701809899493965e-05
aF2.2701809899493965e-05
aF2.2701809899493965e-05
aF2.2701809899493965e-05
aF2.2701809899493965e-05
aF2.2701809899493965e-05
aF2.2701809899493965e-05
aF2.2701809899493965e-05
aF2.2701809899493965e-05
aF2.2701809899493965e-05
aF2.2701809899493965e-05
aF2.2701809899493965e-05
aF2.2701809899493965e-05
aF2.2701809899493965e-05
aF2.2701809899493965e-05
aF2.2701809899493965e-05
aF2.2701809899493965e-05
aF2.2701809899493965e-05
aF2.2701809899493965e-05
aF2.2701809899493965e-05
aF2.2701809899493965e-05
aF2.2701809899493965e-05
aF2.2701809899493965e-05
aF2.2701809899493965e-05
aF2.2701809899493965e-05
aF2.2701809899493965e-05
aF2.2701809899493965e-05
aF2.2701809899493965e-05
aF2.2701809899493965e-05
aF2.2701809899493965e-05
aF2.2701809899493965e-05
aF2.2701809899493965e-05
aF2.2701809899493965e-05
aF2.2701809899493965e-05
aF2.2701809899493965e-05
aF2.2701809899493965e-05
aF2.2701809899493965e-05
aF2.2701809899493965e-05
aF2.2701809899493965e-05
aF2.2701809899493965e-05
aF2.2701809899493965e-05
aF2.2701809899493965e-05
aF2.2701809899493965e-05
aF2.2701809899493965e-05
aF2.2701809899493965e-05
aF2.2701809899493965e-05
aF2.2701809899493965e-05
aF2.2701809899493965e-05
aF2.2701809899493965e-05
aF2.2701809899493965e-05
aF2.2701809899493965e-05
aF2.2701809899493965e-05
aF2.2701809899493965e-05
aF2.2701809899493965e-05
aF2.2701809899493965e-05
aF2.2701809899493965e-05
aF2.2701809899493965e-05
aF2.2701809899493965e-05
aF2.2701809899493965e-05
aF2.2701809899493965e-05
aF2.2701809899493965e-05
aF2.2701809899493965e-05
aF2.2701809899493965e-05
aF2.2701809899493965e-05
aF2.2701809899493965e-05
aF2.2701809899493965e-05
aF2.2701809899493965e-05
aF2.2701809899493965e-05
aF2.2701809899493965e-05
aF2.2701809899493965e-05
aF2.2701809899493965e-05
aF2.2701809899493965e-05
aF2.2701809899493965e-05
aF2.2701809899493965e-05
aF2.2701809899493965e-05
aF2.2701809899493965e-05
aF2.2701809899493965e-05
aF2.2701809899493965e-05
aF2.2701809899493965e-05
aF2.2701809899493965e-05
aF2.2701809899493965e-05
aF2.2701809899493965e-05
aF2.2701809899493965e-05
aF2.2701809899493965e-05
aF2.2701809899493965e-05
aF2.2701809899493965e-05
aF2.2701809899493965e-05
aF2.2701809899493965e-05
aF2.2701809899493965e-05
aF2.2701809899493965e-05
aF2.2701809899493965e-05
aF2.2701809899493965e-05
aF2.2701809899493965e-05
aF2.2701809899493965e-05
aF2.2701809899493965e-05
aF2.2701809899493965e-05
aF2.2701809899493965e-05
aF2.2701809899493965e-05
aF2.2701809899493965e-05
aF2.2701809899493965e-05
aF2.2701809899493965e-05
aF2.2701809899493965e-05
aF2.2701809899493965e-05
aF2.2701809899493965e-05
aF2.2701809899493965e-05
aF2.2701809899493965e-05
aF2.2701809899493965e-05
aF2.2701809899493965e-05
aF2.2701809899493965e-05
aF2.2701809899493965e-05
aF2.2701809899493965e-05
aF2.2701809899493965e-05
aF2.2701809899493965e-05
aF2.2701809899493965e-05
aF2.2701809899493965e-05
aF2.2701809899493965e-05
aF2.2701809899493965e-05
aF2.2701809899493965e-05
aF2.2701809899493965e-05
aF2.2701809899493965e-05
aF2.2701809899493965e-05
aF2.2701809899493965e-05
aF2.2701809899493965e-05
aF2.2701809899493965e-05
aF2.2701809899493965e-05
aF2.2701809899493965e-05
aF2.2701809899493965e-05
aF2.2701809899493965e-05
aF2.2701809899493965e-05
aF2.2701809899493965e-05
aF2.2701809899493965e-05
aF2.2701809899493965e-05
aF2.2701809899493965e-05
aF2.2701809899493965e-05
aF2.2701809899493965e-05
aF2.2701809899493965e-05
aF2.2701809899493965e-05
aF2.2701809899493965e-05
aF2.2701809899493965e-05
aF2.2701809899493965e-05
aF2.2701809899493965e-05
aF2.2701809899493965e-05
aF2.2701809899493965e-05
aF2.2701809899493965e-05
aF2.2701809899493965e-05
aF2.2701809899493965e-05
aF2.2701809899493965e-05
aF2.2701809899493965e-05
aF2.2701809899493965e-05
aF2.2701809899493965e-05
aF2.2701809899493965e-05
aF2.2701809899493965e-05
aF2.2701809899493965e-05
aF2.2701809899493965e-05
aF2.2701809899493965e-05
aF2.2701809899493965e-05
aF2.2701809899493965e-05
aF2.2701809899493965e-05
aF2.2701809899493965e-05
aF2.2701809899493965e-05
aF2.2701809899493965e-05
aF2.2701809899493965e-05
aF2.2701809899493965e-05
aF2.2701809899493965e-05
aF2.2701809899493965e-05
aF2.2701809899493965e-05
aF2.2701809899493965e-05
aF2.2701809899493965e-05
aF2.2701809899493965e-05
aF2.2701809899493965e-05
aF2.2701809899493965e-05
aF2.2701809899493965e-05
aF2.2701809899493965e-05
aF2.2701809899493965e-05
aF2.2701809899493965e-05
aF2.2701809899493965e-05
aF2.2701809899493965e-05
aF2.2701809899493965e-05
aF2.2701809899493965e-05
aF2.2701809899493965e-05
aF2.2701809899493965e-05
aF2.2701809899493965e-05
aF2.2701809899493965e-05
aF2.2701809899493965e-05
aF2.2701809899493965e-05
aF2.2701809899493965e-05
aF2.2701809899493965e-05
aF2.2701809899493965e-05
aF2.2701809899493965e-05
aF2.2701809899493965e-05
aF2.2701809899493965e-05
aF2.2701809899493965e-05
aF2.2701809899493965e-05
aF2.2701809899493965e-05
aF2.2701809899493965e-05
aF2.2701809899493965e-05
aF2.2701809899493965e-05
aF2.2701809899493965e-05
aF2.2701809899493965e-05
aF2.2701809899493965e-05
aF2.2701809899493965e-05
aF2.2701809899493965e-05
aF2.2701809899493965e-05
aF2.2701809899493965e-05
aF2.2701809899493965e-05
aF2.2701809899493965e-05
aF2.2701809899493965e-05
aF2.2701809899493965e-05
aF2.2701809899493965e-05
aF2.2701809899493965e-05
aF2.2701809899493965e-05
aF2.2701809899493965e-05
aF2.2701809899493965e-05
aF2.2701809899493965e-05
aF2.2701809899493965e-05
aF2.2701809899493965e-05
aF2.2701809899493965e-05
aF2.2701809899493965e-05
aF2.2701809899493965e-05
aF2.2701809899493965e-05
aF2.2701809899493965e-05
aF2.2701809899493965e-05
aF2.2701809899493965e-05
aF2.2701809899493965e-05
aF2.2701809899493965e-05
aF2.2701809899493965e-05
aF2.2701809899493965e-05
aF2.2701809899493965e-05
aF2.2701809899493965e-05
aF2.2701809899493965e-05
aF2.2701809899493965e-05
aF2.2701809899493965e-05
aF2.2701809899493965e-05
aF2.2701809899493965e-05
aF2.2701809899493965e-05
aF2.2701809899493965e-05
aF2.2701809899493965e-05
aF2.2701809899493965e-05
aF2.2701809899493965e-05
aF2.2701809899493965e-05
aF2.2701809899493965e-05
aF2.2701809899493965e-05
aF2.2701809899493965e-05
aF2.2701809899493965e-05
aF2.2701809899493965e-05
aF2.2701809899493965e-05
aF2.2701809899493965e-05
aF2.2701809899493965e-05
aF2.2701809899493965e-05
aF2.2701809899493965e-05
aF2.2701809899493965e-05
aF2.2701809899493965e-05
aF2.2701809899493965e-05
aF2.2701809899493965e-05
aF2.2701809899493965e-05
aF2.2701809899493965e-05
aF2.2701809899493965e-05
aF2.2701809899493965e-05
aF2.2701809899493965e-05
aF2.2701809899493965e-05
aF2.2701809899493965e-05
aF2.2701809899493965e-05
aF2.2701809899493965e-05
aF2.2701809899493965e-05
aF2.2701809899493965e-05
aF2.2701809899493965e-05
aF2.2701809899493965e-05
aF2.2701809899493965e-05
aF2.2701809899493965e-05
aF2.2701809899493965e-05
aF2.2701809899493965e-05
aF2.2701809899493965e-05
aF2.2701809899493965e-05
aF2.2701809899493965e-05
aF2.2701809899493965e-05
aF2.2701809899493965e-05
aF2.2701809899493965e-05
aaa(lp7
(lp8
F7.080524064619107e-05
aF7.080524064619107e-05
aF7.080524064619107e-05
aF7.080524064619107e-05
aF7.080524064619107e-05
aF7.080524064619107e-05
aF7.080524064619107e-05
aF7.080524064619107e-05
aF7.080524064619107e-05
aF7.080524064619107e-05
aF7.080524064619107e-05
aF7.080524064619107e-05
aF7.080524064619107e-05
aF7.080524064619107e-05
aF7.080524064619107e-05
aF7.080524064619107e-05
aF7.080524064619107e-05
aF7.080524064619107e-05
aF7.080524064619107e-05
aF7.080524064619107e-05
aF7.080524064619107e-05
aF7.080524064619107e-05
aF7.080524064619107e-05
aF7.080524064619107e-05
aF7.080524064619107e-05
aF7.080524064619107e-05
aF7.080524064619107e-05
aF7.080524064619107e-05
aF7.080524064619107e-05
aF7.080524064619107e-05
aF7.080524064619107e-05
aF7.080524064619107e-05
aF7.080524064619107e-05
aF7.080524064619107e-05
aF7.080524064619107e-05
aF7.080524064619107e-05
aF7.080524064619107e-05
aF7.080524064619107e-05
aF7.080524064619107e-05
aF7.080524064619107e-05
aF7.080524064619107e-05
aF7.080524064619107e-05
aF7.080524064619107e-05
aF7.080524064619107e-05
aF7.080524064619107e-05
aF7.080524064619107e-05
aF7.080524064619107e-05
aF7.080524064619107e-05
aF7.080524064619107e-05
aF7.080524064619107e-05
aF7.080524064619107e-05
aF7.080524064619107e-05
aF7.080524064619107e-05
aF7.080524064619107e-05
aF7.080524064619107e-05
aF7.080524064619107e-05
aF7.080524064619107e-05
aF7.080524064619107e-05
aF7.080524064619107e-05
aF7.080524064619107e-05
aF7.080524064619107e-05
aF7.080524064619107e-05
aF7.080524064619107e-05
aF7.080524064619107e-05
aF7.080524064619107e-05
aF7.080524064619107e-05
aF7.080524064619107e-05
aF7.080524064619107e-05
aF7.080524064619107e-05
aF7.080524064619107e-05
aF7.080524064619107e-05
aF7.080524064619107e-05
aF7.080524064619107e-05
aF7.080524064619107e-05
aF7.080524064619107e-05
aF7.080524064619107e-05
aF7.080524064619107e-05
aF7.080524064619107e-05
aF7.080524064619107e-05
aF7.080524064619107e-05
aF7.080524064619107e-05
aF7.080524064619107e-05
aF7.080524064619107e-05
aF7.080524064619107e-05
aF7.080524064619107e-05
aF7.080524064619107e-05
aF7.080524064619107e-05
aF7.080524064619107e-05
aF7.080524064619107e-05
aF7.080524064619107e-05
aF7.080524064619107e-05
aF7.080524064619107e-05
aF7.080524064619107e-05
aF7.080524064619107e-05
aF7.080524064619107e-05
aF7.080524064619107e-05
aF7.080524064619107e-05
aF7.080524064619107e-05
aF7.080524064619107e-05
aF7.080524064619107e-05
aF7.080524064619107e-05
aF7.080524064619107e-05
aF7.080524064619107e-05
aF7.080524064619107e-05
aF7.080524064619107e-05
aF7.080524064619107e-05
aF7.080524064619107e-05
aF7.080524064619107e-05
aF7.080524064619107e-05
aF7.080524064619107e-05
aF7.080524064619107e-05
aF7.080524064619107e-05
aF7.080524064619107e-05
aF7.080524064619107e-05
aF7.080524064619107e-05
aF7.080524064619107e-05
aF7.080524064619107e-05
aF7.080524064619107e-05
aF7.080524064619107e-05
aF7.080524064619107e-05
aF7.080524064619107e-05
aF7.080524064619107e-05
aF7.080524064619107e-05
aF7.080524064619107e-05
aF7.080524064619107e-05
aF7.080524064619107e-05
aF7.080524064619107e-05
aF7.080524064619107e-05
aF7.080524064619107e-05
aF7.080524064619107e-05
aF7.080524064619107e-05
aF7.080524064619107e-05
aF7.080524064619107e-05
aF7.080524064619107e-05
aF7.080524064619107e-05
aF7.080524064619107e-05
aF7.080524064619107e-05
aF7.080524064619107e-05
aF7.080524064619107e-05
aF7.080524064619107e-05
aF7.080524064619107e-05
aF7.080524064619107e-05
aF7.080524064619107e-05
aF7.080524064619107e-05
aF7.080524064619107e-05
aF7.080524064619107e-05
aF7.080524064619107e-05
aF7.080524064619107e-05
aF7.080524064619107e-05
aF7.080524064619107e-05
aF7.080524064619107e-05
aF7.080524064619107e-05
aF7.080524064619107e-05
aF7.080524064619107e-05
aF7.080524064619107e-05
aF7.080524064619107e-05
aF7.080524064619107e-05
aF7.080524064619107e-05
aF7.080524064619107e-05
aF7.080524064619107e-05
aF7.080524064619107e-05
aF7.080524064619107e-05
aF7.080524064619107e-05
aF7.080524064619107e-05
aF7.080524064619107e-05
aF7.080524064619107e-05
aF7.080524064619107e-05
aF7.080524064619107e-05
aF7.080524064619107e-05
aF7.080524064619107e-05
aF7.080524064619107e-05
aF7.080524064619107e-05
aF7.080524064619107e-05
aF7.080524064619107e-05
aF7.080524064619107e-05
aF7.080524064619107e-05
aF7.080524064619107e-05
aF7.080524064619107e-05
aF7.080524064619107e-05
aF7.080524064619107e-05
aF7.080524064619107e-05
aF7.080524064619107e-05
aF7.080524064619107e-05
aF7.080524064619107e-05
aF7.080524064619107e-05
aF7.080524064619107e-05
aF7.080524064619107e-05
aF7.080524064619107e-05
aF7.080524064619107e-05
aF7.080524064619107e-05
aF7.080524064619107e-05
aF7.080524064619107e-05
aF7.080524064619107e-05
aF7.080524064619107e-05
aF7.080524064619107e-05
aF7.080524064619107e-05
aF7.080524064619107e-05
aF7.080524064619107e-05
aF7.080524064619107e-05
aF7.080524064619107e-05
aF7.080524064619107e-05
aF7.080524064619107e-05
aF7.080524064619107e-05
aF7.080524064619107e-05
aF7.080524064619107e-05
aF7.080524064619107e-05
aF7.080524064619107e-05
aF7.080524064619107e-05
aF7.080524064619107e-05
aF7.080524064619107e-05
aF7.080524064619107e-05
aF7.080524064619107e-05
aF7.080524064619107e-05
aF7.080524064619107e-05
aF7.080524064619107e-05
aF7.080524064619107e-05
aF7.080524064619107e-05
aF7.080524064619107e-05
aF7.080524064619107e-05
aF7.080524064619107e-05
aF7.080524064619107e-05
aF7.080524064619107e-05
aF7.080524064619107e-05
aF7.080524064619107e-05
aF7.080524064619107e-05
aF7.080524064619107e-05
aF7.080524064619107e-05
aF7.080524064619107e-05
aF7.080524064619107e-05
aF7.080524064619107e-05
aF7.080524064619107e-05
aF7.080524064619107e-05
aF7.080524064619107e-05
aF7.080524064619107e-05
aF7.080524064619107e-05
aF7.080524064619107e-05
aF7.080524064619107e-05
aF7.080524064619107e-05
aF7.080524064619107e-05
aF7.080524064619107e-05
aF7.080524064619107e-05
aF7.080524064619107e-05
aF7.080524064619107e-05
aF7.080524064619107e-05
aF7.080524064619107e-05
aF7.080524064619107e-05
aF7.080524064619107e-05
aF7.080524064619107e-05
aF7.080524064619107e-05
aF7.080524064619107e-05
aF7.080524064619107e-05
aF7.080524064619107e-05
aF7.080524064619107e-05
aF7.080524064619107e-05
aF7.080524064619107e-05
aF7.080524064619107e-05
aF7.080524064619107e-05
aF7.080524064619107e-05
aF7.080524064619107e-05
aF7.080524064619107e-05
aF7.080524064619107e-05
aF7.080524064619107e-05
aF7.080524064619107e-05
aF7.080524064619107e-05
aF7.080524064619107e-05
aF7.080524064619107e-05
aF7.080524064619107e-05
aF7.080524064619107e-05
aF7.080524064619107e-05
aF7.080524064619107e-05
aF7.080524064619107e-05
aF7.080524064619107e-05
aF7.080524064619107e-05
aF7.080524064619107e-05
aF7.080524064619107e-05
aF7.080524064619107e-05
aF7.080524064619107e-05
aF7.080524064619107e-05
aF7.080524064619107e-05
aF7.080524064619107e-05
aF7.080524064619107e-05
aF7.080524064619107e-05
aF7.080524064619107e-05
aF7.080524064619107e-05
aF7.080524064619107e-05
aF7.080524064619107e-05
aF7.080524064619107e-05
aF7.080524064619107e-05
aF7.080524064619107e-05
aF7.080524064619107e-05
aF7.080524064619107e-05
aF7.080524064619107e-05
aF7.080524064619107e-05
aF7.080524064619107e-05
aF7.080524064619107e-05
aF7.080524064619107e-05
aF7.080524064619107e-05
aF7.080524064619107e-05
aF7.080524064619107e-05
aF7.080524064619107e-05
aF7.080524064619107e-05
aF7.080524064619107e-05
aF7.080524064619107e-05
aF7.080524064619107e-05
aF7.080524064619107e-05
aF7.080524064619107e-05
aF7.080524064619107e-05
aF7.080524064619107e-05
aF7.080524064619107e-05
aF7.080524064619107e-05
aF7.080524064619107e-05
aF7.080524064619107e-05
aF7.080524064619107e-05
aF7.080524064619107e-05
aF7.080524064619107e-05
aF7.080524064619107e-05
aF7.080524064619107e-05
aF7.080524064619107e-05
aF7.080524064619107e-05
aF7.080524064619107e-05
aF7.080524064619107e-05
aF7.080524064619107e-05
aF7.080524064619107e-05
aF7.080524064619107e-05
aF7.080524064619107e-05
aF7.080524064619107e-05
aF7.080524064619107e-05
aF7.080524064619107e-05
aF7.080524064619107e-05
aF7.080524064619107e-05
aF7.080524064619107e-05
aF7.080524064619107e-05
aF7.080524064619107e-05
aF7.080524064619107e-05
aF7.080524064619107e-05
aF7.080524064619107e-05
aF7.080524064619107e-05
aF7.080524064619107e-05
aF7.080524064619107e-05
aF7.080524064619107e-05
aF7.080524064619107e-05
aF7.080524064619107e-05
aF7.080524064619107e-05
aF7.080524064619107e-05
aF7.080524064619107e-05
aF7.080524064619107e-05
aF7.080524064619107e-05
aF7.080524064619107e-05
aF7.080524064619107e-05
aF7.080524064619107e-05
aF7.080524064619107e-05
aF7.080524064619107e-05
aF7.080524064619107e-05
aF7.080524064619107e-05
aF7.080524064619107e-05
aF7.080524064619107e-05
aF7.080524064619107e-05
aF7.080524064619107e-05
aF7.080524064619107e-05
aF7.080524064619107e-05
aF7.080524064619107e-05
aF7.080524064619107e-05
aF7.080524064619107e-05
aF7.080524064619107e-05
aF7.080524064619107e-05
aF7.080524064619107e-05
aF7.080524064619107e-05
aF7.080524064619107e-05
aF7.080524064619107e-05
aF7.080524064619107e-05
aF7.080524064619107e-05
aF7.080524064619107e-05
aF7.080524064619107e-05
aF7.080524064619107e-05
aF7.080524064619107e-05
aF7.080524064619107e-05
aF7.080524064619107e-05
aF7.080524064619107e-05
aF7.080524064619107e-05
aF7.080524064619107e-05
aF7.080524064619107e-05
aF7.080524064619107e-05
aF7.080524064619107e-05
aF7.080524064619107e-05
aF7.080524064619107e-05
aF7.080524064619107e-05
aF7.080524064619107e-05
aF7.080524064619107e-05
aF7.080524064619107e-05
aF7.080524064619107e-05
aF7.080524064619107e-05
aF7.080524064619107e-05
aF7.080524064619107e-05
aF7.080524064619107e-05
aF7.080524064619107e-05
aF7.080524064619107e-05
aF7.080524064619107e-05
aF7.080524064619107e-05
aF7.080524064619107e-05
aF7.080524064619107e-05
aF7.080524064619107e-05
aF7.080524064619107e-05
aF7.080524064619107e-05
aF7.080524064619107e-05
aF7.080524064619107e-05
aF7.080524064619107e-05
aF7.080524064619107e-05
aF7.080524064619107e-05
aF7.080524064619107e-05
aF7.080524064619107e-05
aF7.080524064619107e-05
aF7.080524064619107e-05
aF7.080524064619107e-05
aF7.080524064619107e-05
aF7.080524064619107e-05
aF7.080524064619107e-05
aF7.080524064619107e-05
aF7.080524064619107e-05
aF7.080524064619107e-05
aF7.080524064619107e-05
aF7.080524064619107e-05
aF7.080524064619107e-05
aF7.080524064619107e-05
aF7.080524064619107e-05
aF7.080524064619107e-05
aF7.080524064619107e-05
aF7.080524064619107e-05
aF7.080524064619107e-05
aF7.080524064619107e-05
aF7.080524064619107e-05
aF7.080524064619107e-05
aF7.080524064619107e-05
aF7.080524064619107e-05
aF7.080524064619107e-05
aF7.080524064619107e-05
aF7.080524064619107e-05
aF7.080524064619107e-05
aF7.080524064619107e-05
aF7.080524064619107e-05
aF7.080524064619107e-05
aF7.080524064619107e-05
aF7.080524064619107e-05
aF7.080524064619107e-05
aF7.080524064619107e-05
aF7.080524064619107e-05
aF7.080524064619107e-05
aF7.080524064619107e-05
aF7.080524064619107e-05
aF7.080524064619107e-05
aF7.080524064619107e-05
aF7.080524064619107e-05
aF7.080524064619107e-05
aF7.080524064619107e-05
aF7.080524064619107e-05
aF7.080524064619107e-05
aF7.080524064619107e-05
aF7.080524064619107e-05
aF7.080524064619107e-05
aF7.080524064619107e-05
aF7.080524064619107e-05
aF7.080524064619107e-05
aF7.080524064619107e-05
aF7.080524064619107e-05
aF7.080524064619107e-05
aF7.080524064619107e-05
aF7.080524064619107e-05
aF7.080524064619107e-05
aF7.080524064619107e-05
aF7.080524064619107e-05
aF7.080524064619107e-05
aF7.080524064619107e-05
aF7.080524064619107e-05
aF7.080524064619107e-05
aF7.080524064619107e-05
aF7.080524064619107e-05
aF7.080524064619107e-05
aF7.080524064619107e-05
aF7.080524064619107e-05
aF7.080524064619107e-05
aF7.080524064619107e-05
aF7.080524064619107e-05
aF7.080524064619107e-05
aF7.080524064619107e-05
aF7.080524064619107e-05
aF7.080524064619107e-05
aF7.080524064619107e-05
aF7.080524064619107e-05
aF7.080524064619107e-05
aF7.080524064619107e-05
aF7.080524064619107e-05
aF7.080524064619107e-05
aF7.080524064619107e-05
aF7.080524064619107e-05
aF7.080524064619107e-05
aF7.080524064619107e-05
aF7.080524064619107e-05
aF7.080524064619107e-05
aF7.080524064619107e-05
aF7.080524064619107e-05
aF7.080524064619107e-05
aF7.080524064619107e-05
aF7.080524064619107e-05
aF7.080524064619107e-05
aF7.080524064619107e-05
aF7.080524064619107e-05
aF7.080524064619107e-05
aF7.080524064619107e-05
aF7.080524064619107e-05
aF7.080524064619107e-05
aF7.080524064619107e-05
aF7.080524064619107e-05
aF7.080524064619107e-05
aF7.080524064619107e-05
aF7.080524064619107e-05
aF7.080524064619107e-05
aF7.080524064619107e-05
aF7.080524064619107e-05
aF7.080524064619107e-05
aF7.080524064619107e-05
aF7.080524064619107e-05
aF7.080524064619107e-05
aF7.080524064619107e-05
aF7.080524064619107e-05
aF7.080524064619107e-05
aF7.080524064619107e-05
aF7.080524064619107e-05
aF7.080524064619107e-05
aF7.080524064619107e-05
aF7.080524064619107e-05
aF7.080524064619107e-05
aF7.080524064619107e-05
aF7.080524064619107e-05
aF7.080524064619107e-05
aF7.080524064619107e-05
aF7.080524064619107e-05
aF7.080524064619107e-05
aF7.080524064619107e-05
aF7.080524064619107e-05
aF7.080524064619107e-05
aF7.080524064619107e-05
aF7.080524064619107e-05
aF7.080524064619107e-05
aF7.080524064619107e-05
aF7.080524064619107e-05
aF7.080524064619107e-05
aF7.080524064619107e-05
aF7.080524064619107e-05
aF7.080524064619107e-05
aF7.080524064619107e-05
aF7.080524064619107e-05
aF7.080524064619107e-05
aF7.080524064619107e-05
aF7.080524064619107e-05
aF7.080524064619107e-05
aF7.080524064619107e-05
aF7.080524064619107e-05
aF7.080524064619107e-05
aF7.080524064619107e-05
aF7.080524064619107e-05
aF7.080524064619107e-05
aF7.080524064619107e-05
aF7.080524064619107e-05
aF7.080524064619107e-05
aF7.080524064619107e-05
aF7.080524064619107e-05
aF7.080524064619107e-05
aF7.080524064619107e-05
aF7.080524064619107e-05
aF7.080524064619107e-05
aF7.080524064619107e-05
aF7.080524064619107e-05
aF7.080524064619107e-05
aF7.080524064619107e-05
aF7.080524064619107e-05
aF7.080524064619107e-05
aF7.080524064619107e-05
aF7.080524064619107e-05
aF7.080524064619107e-05
aF7.080524064619107e-05
aF7.080524064619107e-05
aF7.080524064619107e-05
aF7.080524064619107e-05
aF7.080524064619107e-05
aF7.080524064619107e-05
aF7.080524064619107e-05
aF7.080524064619107e-05
aF7.080524064619107e-05
aF7.080524064619107e-05
aF7.080524064619107e-05
aF7.080524064619107e-05
aF7.080524064619107e-05
aF7.080524064619107e-05
aF7.080524064619107e-05
aF7.080524064619107e-05
aF7.080524064619107e-05
aF7.080524064619107e-05
aF7.080524064619107e-05
aF7.080524064619107e-05
aF7.080524064619107e-05
aF7.080524064619107e-05
aF7.080524064619107e-05
aF7.080524064619107e-05
aF7.080524064619107e-05
aF7.080524064619107e-05
aF7.080524064619107e-05
aF7.080524064619107e-05
aF7.080524064619107e-05
aF7.080524064619107e-05
aF7.080524064619107e-05
aF7.080524064619107e-05
aF7.080524064619107e-05
aF7.080524064619107e-05
aF7.080524064619107e-05
aF7.080524064619107e-05
aF7.080524064619107e-05
aF7.080524064619107e-05
aF7.080524064619107e-05
aF7.080524064619107e-05
aF7.080524064619107e-05
aF7.080524064619107e-05
aF7.080524064619107e-05
aF7.080524064619107e-05
aF7.080524064619107e-05
aF7.080524064619107e-05
aF7.080524064619107e-05
aF7.080524064619107e-05
aF7.080524064619107e-05
aF7.080524064619107e-05
aF7.080524064619107e-05
aF7.080524064619107e-05
aF7.080524064619107e-05
aF7.080524064619107e-05
aF7.080524064619107e-05
aF7.080524064619107e-05
aF7.080524064619107e-05
aF7.080524064619107e-05
aF7.080524064619107e-05
aF7.080524064619107e-05
aF7.080524064619107e-05
aF7.080524064619107e-05
aa(lp9
F7.080524064619107e-05
aF7.080524064619107e-05
aF7.080524064619107e-05
aF7.080524064619107e-05
aF7.080524064619107e-05
aF7.080524064619107e-05
aF7.080524064619107e-05
aF7.080524064619107e-05
aF7.080524064619107e-05
aF7.080524064619107e-05
aF7.080524064619107e-05
aF7.080524064619107e-05
aF7.080524064619107e-05
aF7.080524064619107e-05
aF7.080524064619107e-05
aF7.080524064619107e-05
aF7.080524064619107e-05
aF7.080524064619107e-05
aF7.080524064619107e-05
aF7.080524064619107e-05
aF7.080524064619107e-05
aF7.080524064619107e-05
aF7.080524064619107e-05
aF7.080524064619107e-05
aF7.080524064619107e-05
aF7.080524064619107e-05
aF7.080524064619107e-05
aF7.080524064619107e-05
aF7.080524064619107e-05
aF7.080524064619107e-05
aF7.080524064619107e-05
aF7.080524064619107e-05
aF7.080524064619107e-05
aF7.080524064619107e-05
aF7.080524064619107e-05
aF7.080524064619107e-05
aF7.080524064619107e-05
aF7.080524064619107e-05
aF7.080524064619107e-05
aF7.080524064619107e-05
aF7.080524064619107e-05
aF7.080524064619107e-05
aF7.080524064619107e-05
aF7.080524064619107e-05
aF7.080524064619107e-05
aF7.080524064619107e-05
aF7.080524064619107e-05
aF7.080524064619107e-05
aF7.080524064619107e-05
aF7.080524064619107e-05
aF7.080524064619107e-05
aF7.080524064619107e-05
aF7.080524064619107e-05
aF7.080524064619107e-05
aF7.080524064619107e-05
aF7.080524064619107e-05
aF7.080524064619107e-05
aF7.080524064619107e-05
aF7.080524064619107e-05
aF7.080524064619107e-05
aF7.080524064619107e-05
aF7.080524064619107e-05
aF7.080524064619107e-05
aF7.080524064619107e-05
aF7.080524064619107e-05
aF7.080524064619107e-05
aF7.080524064619107e-05
aF7.080524064619107e-05
aF7.080524064619107e-05
aF7.080524064619107e-05
aF7.080524064619107e-05
aF7.080524064619107e-05
aF7.080524064619107e-05
aF7.080524064619107e-05
aF7.080524064619107e-05
aF7.080524064619107e-05
aF7.080524064619107e-05
aF7.080524064619107e-05
aF7.080524064619107e-05
aF7.080524064619107e-05
aF7.080524064619107e-05
aF7.080524064619107e-05
aF7.080524064619107e-05
aF7.080524064619107e-05
aF7.080524064619107e-05
aF7.080524064619107e-05
aF7.080524064619107e-05
aF7.080524064619107e-05
aF7.080524064619107e-05
aF7.080524064619107e-05
aF7.080524064619107e-05
aF7.080524064619107e-05
aF7.080524064619107e-05
aF7.080524064619107e-05
aF7.080524064619107e-05
aF7.080524064619107e-05
aF7.080524064619107e-05
aF7.080524064619107e-05
aF7.080524064619107e-05
aF7.080524064619107e-05
aF7.080524064619107e-05
aF7.080524064619107e-05
aF7.080524064619107e-05
aF7.080524064619107e-05
aF7.080524064619107e-05
aF7.080524064619107e-05
aF7.080524064619107e-05
aF7.080524064619107e-05
aF7.080524064619107e-05
aF7.080524064619107e-05
aF7.080524064619107e-05
aF7.080524064619107e-05
aF7.080524064619107e-05
aF7.080524064619107e-05
aF7.080524064619107e-05
aF7.080524064619107e-05
aF7.080524064619107e-05
aF7.080524064619107e-05
aF7.080524064619107e-05
aF7.080524064619107e-05
aF7.080524064619107e-05
aF7.080524064619107e-05
aF7.080524064619107e-05
aF7.080524064619107e-05
aF7.080524064619107e-05
aF7.080524064619107e-05
aF7.080524064619107e-05
aF7.080524064619107e-05
aF7.080524064619107e-05
aF7.080524064619107e-05
aF7.080524064619107e-05
aF7.080524064619107e-05
aF7.080524064619107e-05
aF7.080524064619107e-05
aF7.080524064619107e-05
aF7.080524064619107e-05
aF7.080524064619107e-05
aF7.080524064619107e-05
aF7.080524064619107e-05
aF7.080524064619107e-05
aF7.080524064619107e-05
aF7.080524064619107e-05
aF7.080524064619107e-05
aF7.080524064619107e-05
aF7.080524064619107e-05
aF7.080524064619107e-05
aF7.080524064619107e-05
aF7.080524064619107e-05
aF7.080524064619107e-05
aF7.080524064619107e-05
aF7.080524064619107e-05
aF7.080524064619107e-05
aF7.080524064619107e-05
aF7.080524064619107e-05
aF7.080524064619107e-05
aF7.080524064619107e-05
aF7.080524064619107e-05
aF7.080524064619107e-05
aF7.080524064619107e-05
aF7.080524064619107e-05
aF7.080524064619107e-05
aF7.080524064619107e-05
aF7.080524064619107e-05
aF7.080524064619107e-05
aF7.080524064619107e-05
aF7.080524064619107e-05
aF7.080524064619107e-05
aF7.080524064619107e-05
aF7.080524064619107e-05
aF7.080524064619107e-05
aF7.080524064619107e-05
aF7.080524064619107e-05
aF7.080524064619107e-05
aF7.080524064619107e-05
aF7.080524064619107e-05
aF7.080524064619107e-05
aF7.080524064619107e-05
aF7.080524064619107e-05
aF7.080524064619107e-05
aF7.080524064619107e-05
aF7.080524064619107e-05
aF7.080524064619107e-05
aF7.080524064619107e-05
aF7.080524064619107e-05
aF7.080524064619107e-05
aF7.080524064619107e-05
aF7.080524064619107e-05
aF7.080524064619107e-05
aF7.080524064619107e-05
aF7.080524064619107e-05
aF7.080524064619107e-05
aF7.080524064619107e-05
aF7.080524064619107e-05
aF7.080524064619107e-05
aF7.080524064619107e-05
aF7.080524064619107e-05
aF7.080524064619107e-05
aF7.080524064619107e-05
aF7.080524064619107e-05
aF7.080524064619107e-05
aF7.080524064619107e-05
aF7.080524064619107e-05
aF7.080524064619107e-05
aF7.080524064619107e-05
aF7.080524064619107e-05
aF7.080524064619107e-05
aF7.080524064619107e-05
aF7.080524064619107e-05
aF7.080524064619107e-05
aF7.080524064619107e-05
aF7.080524064619107e-05
aF7.080524064619107e-05
aF7.080524064619107e-05
aF7.080524064619107e-05
aF7.080524064619107e-05
aF7.080524064619107e-05
aF7.080524064619107e-05
aF7.080524064619107e-05
aF7.080524064619107e-05
aF7.080524064619107e-05
aF7.080524064619107e-05
aF7.080524064619107e-05
aF7.080524064619107e-05
aF7.080524064619107e-05
aF7.080524064619107e-05
aF7.080524064619107e-05
aF7.080524064619107e-05
aF7.080524064619107e-05
aF7.080524064619107e-05
aF7.080524064619107e-05
aF7.080524064619107e-05
aF7.080524064619107e-05
aF7.080524064619107e-05
aF7.080524064619107e-05
aF7.080524064619107e-05
aF7.080524064619107e-05
aF7.080524064619107e-05
aF7.080524064619107e-05
aF7.080524064619107e-05
aF7.080524064619107e-05
aF7.080524064619107e-05
aF7.080524064619107e-05
aF7.080524064619107e-05
aF7.080524064619107e-05
aF7.080524064619107e-05
aF7.080524064619107e-05
aF7.080524064619107e-05
aF7.080524064619107e-05
aF7.080524064619107e-05
aF7.080524064619107e-05
aF7.080524064619107e-05
aF7.080524064619107e-05
aF7.080524064619107e-05
aF7.080524064619107e-05
aF7.080524064619107e-05
aF7.080524064619107e-05
aF7.080524064619107e-05
aF7.080524064619107e-05
aF7.080524064619107e-05
aF7.080524064619107e-05
aF7.080524064619107e-05
aF7.080524064619107e-05
aF7.080524064619107e-05
aF7.080524064619107e-05
aF7.080524064619107e-05
aF7.080524064619107e-05
aF7.080524064619107e-05
aF7.080524064619107e-05
aF7.080524064619107e-05
aF7.080524064619107e-05
aF7.080524064619107e-05
aF7.080524064619107e-05
aF7.080524064619107e-05
aF7.080524064619107e-05
aF7.080524064619107e-05
aF7.080524064619107e-05
aF7.080524064619107e-05
aF7.080524064619107e-05
aF7.080524064619107e-05
aF7.080524064619107e-05
aF7.080524064619107e-05
aF7.080524064619107e-05
aF7.080524064619107e-05
aF7.080524064619107e-05
aF7.080524064619107e-05
aF7.080524064619107e-05
aF7.080524064619107e-05
aF7.080524064619107e-05
aF7.080524064619107e-05
aF7.080524064619107e-05
aF7.080524064619107e-05
aF7.080524064619107e-05
aF7.080524064619107e-05
aF7.080524064619107e-05
aF7.080524064619107e-05
aF7.080524064619107e-05
aF7.080524064619107e-05
aF7.080524064619107e-05
aF7.080524064619107e-05
aF7.080524064619107e-05
aF7.080524064619107e-05
aF7.080524064619107e-05
aF7.080524064619107e-05
aF7.080524064619107e-05
aF7.080524064619107e-05
aF7.080524064619107e-05
aF7.080524064619107e-05
aF7.080524064619107e-05
aF7.080524064619107e-05
aF7.080524064619107e-05
aF7.080524064619107e-05
aF7.080524064619107e-05
aF7.080524064619107e-05
aF7.080524064619107e-05
aF7.080524064619107e-05
aF7.080524064619107e-05
aF7.080524064619107e-05
aF7.080524064619107e-05
aF7.080524064619107e-05
aF7.080524064619107e-05
aF7.080524064619107e-05
aF7.080524064619107e-05
aF7.080524064619107e-05
aF7.080524064619107e-05
aF7.080524064619107e-05
aF7.080524064619107e-05
aF7.080524064619107e-05
aF7.080524064619107e-05
aF7.080524064619107e-05
aF7.080524064619107e-05
aF7.080524064619107e-05
aF7.080524064619107e-05
aF7.080524064619107e-05
aF7.080524064619107e-05
aF7.080524064619107e-05
aF7.080524064619107e-05
aF7.080524064619107e-05
aF7.080524064619107e-05
aF7.080524064619107e-05
aF7.080524064619107e-05
aF7.080524064619107e-05
aF7.080524064619107e-05
aF7.080524064619107e-05
aF7.080524064619107e-05
aF7.080524064619107e-05
aF7.080524064619107e-05
aF7.080524064619107e-05
aF7.080524064619107e-05
aF7.080524064619107e-05
aF7.080524064619107e-05
aF7.080524064619107e-05
aF7.080524064619107e-05
aF7.080524064619107e-05
aF7.080524064619107e-05
aF7.080524064619107e-05
aF7.080524064619107e-05
aF7.080524064619107e-05
aF7.080524064619107e-05
aF7.080524064619107e-05
aF7.080524064619107e-05
aF7.080524064619107e-05
aF7.080524064619107e-05
aF7.080524064619107e-05
aF7.080524064619107e-05
aF7.080524064619107e-05
aF7.080524064619107e-05
aF7.080524064619107e-05
aF7.080524064619107e-05
aF7.080524064619107e-05
aF7.080524064619107e-05
aF7.080524064619107e-05
aF7.080524064619107e-05
aF7.080524064619107e-05
aF7.080524064619107e-05
aF7.080524064619107e-05
aF7.080524064619107e-05
aF7.080524064619107e-05
aF7.080524064619107e-05
aF7.080524064619107e-05
aF7.080524064619107e-05
aF7.080524064619107e-05
aF7.080524064619107e-05
aF7.080524064619107e-05
aF7.080524064619107e-05
aF7.080524064619107e-05
aF7.080524064619107e-05
aF7.080524064619107e-05
aF7.080524064619107e-05
aF7.080524064619107e-05
aF7.080524064619107e-05
aF7.080524064619107e-05
aF7.080524064619107e-05
aF7.080524064619107e-05
aF7.080524064619107e-05
aF7.080524064619107e-05
aF7.080524064619107e-05
aF7.080524064619107e-05
aF7.080524064619107e-05
aF7.080524064619107e-05
aF7.080524064619107e-05
aF7.080524064619107e-05
aF7.080524064619107e-05
aF7.080524064619107e-05
aF7.080524064619107e-05
aF7.080524064619107e-05
aF7.080524064619107e-05
aF7.080524064619107e-05
aF7.080524064619107e-05
aF7.080524064619107e-05
aF7.080524064619107e-05
aF7.080524064619107e-05
aF7.080524064619107e-05
aF7.080524064619107e-05
aF7.080524064619107e-05
aF7.080524064619107e-05
aF7.080524064619107e-05
aF7.080524064619107e-05
aF7.080524064619107e-05
aF7.080524064619107e-05
aF7.080524064619107e-05
aF7.080524064619107e-05
aF7.080524064619107e-05
aF7.080524064619107e-05
aF7.080524064619107e-05
aF7.080524064619107e-05
aF7.080524064619107e-05
aF7.080524064619107e-05
aF7.080524064619107e-05
aF7.080524064619107e-05
aF7.080524064619107e-05
aF7.080524064619107e-05
aF7.080524064619107e-05
aF7.080524064619107e-05
aF7.080524064619107e-05
aF7.080524064619107e-05
aF7.080524064619107e-05
aF7.080524064619107e-05
aF7.080524064619107e-05
aF7.080524064619107e-05
aF7.080524064619107e-05
aF7.080524064619107e-05
aF7.080524064619107e-05
aF7.080524064619107e-05
aF7.080524064619107e-05
aF7.080524064619107e-05
aF7.080524064619107e-05
aF7.080524064619107e-05
aF7.080524064619107e-05
aF7.080524064619107e-05
aF7.080524064619107e-05
aF7.080524064619107e-05
aF7.080524064619107e-05
aF7.080524064619107e-05
aF7.080524064619107e-05
aF7.080524064619107e-05
aF7.080524064619107e-05
aF7.080524064619107e-05
aF7.080524064619107e-05
aF7.080524064619107e-05
aF7.080524064619107e-05
aF7.080524064619107e-05
aF7.080524064619107e-05
aF7.080524064619107e-05
aF7.080524064619107e-05
aF7.080524064619107e-05
aF7.080524064619107e-05
aF7.080524064619107e-05
aF7.080524064619107e-05
aF7.080524064619107e-05
aF7.080524064619107e-05
aF7.080524064619107e-05
aF7.080524064619107e-05
aF7.080524064619107e-05
aF7.080524064619107e-05
aF7.080524064619107e-05
aF7.080524064619107e-05
aF7.080524064619107e-05
aF7.080524064619107e-05
aF7.080524064619107e-05
aF7.080524064619107e-05
aF7.080524064619107e-05
aF7.080524064619107e-05
aF7.080524064619107e-05
aF7.080524064619107e-05
aF7.080524064619107e-05
aF7.080524064619107e-05
aF7.080524064619107e-05
aF7.080524064619107e-05
aF7.080524064619107e-05
aF7.080524064619107e-05
aF7.080524064619107e-05
aF7.080524064619107e-05
aF7.080524064619107e-05
aF7.080524064619107e-05
aF7.080524064619107e-05
aF7.080524064619107e-05
aF7.080524064619107e-05
aF7.080524064619107e-05
aF7.080524064619107e-05
aF7.080524064619107e-05
aF7.080524064619107e-05
aF7.080524064619107e-05
aF7.080524064619107e-05
aF7.080524064619107e-05
aF7.080524064619107e-05
aF7.080524064619107e-05
aF7.080524064619107e-05
aF7.080524064619107e-05
aF7.080524064619107e-05
aF7.080524064619107e-05
aF7.080524064619107e-05
aF7.080524064619107e-05
aF7.080524064619107e-05
aF7.080524064619107e-05
aF7.080524064619107e-05
aF7.080524064619107e-05
aF7.080524064619107e-05
aF7.080524064619107e-05
aF7.080524064619107e-05
aF7.080524064619107e-05
aF7.080524064619107e-05
aF7.080524064619107e-05
aF7.080524064619107e-05
aF7.080524064619107e-05
aF7.080524064619107e-05
aF7.080524064619107e-05
aF7.080524064619107e-05
aF7.080524064619107e-05
aF7.080524064619107e-05
aF7.080524064619107e-05
aF7.080524064619107e-05
aF7.080524064619107e-05
aF7.080524064619107e-05
aF7.080524064619107e-05
aF7.080524064619107e-05
aF7.080524064619107e-05
aF7.080524064619107e-05
aF7.080524064619107e-05
aF7.080524064619107e-05
aF7.080524064619107e-05
aF7.080524064619107e-05
aF7.080524064619107e-05
aF7.080524064619107e-05
aF7.080524064619107e-05
aF7.080524064619107e-05
aF7.080524064619107e-05
aF7.080524064619107e-05
aF7.080524064619107e-05
aF7.080524064619107e-05
aF7.080524064619107e-05
aF7.080524064619107e-05
aF7.080524064619107e-05
aF7.080524064619107e-05
aF7.080524064619107e-05
aF7.080524064619107e-05
aF7.080524064619107e-05
aF7.080524064619107e-05
aF7.080524064619107e-05
aF7.080524064619107e-05
aF7.080524064619107e-05
aF7.080524064619107e-05
aF7.080524064619107e-05
aF7.080524064619107e-05
aF7.080524064619107e-05
aF7.080524064619107e-05
aF7.080524064619107e-05
aF7.080524064619107e-05
aF7.080524064619107e-05
aF7.080524064619107e-05
aF7.080524064619107e-05
aF7.080524064619107e-05
aF7.080524064619107e-05
aF7.080524064619107e-05
aF7.080524064619107e-05
aF7.080524064619107e-05
aF7.080524064619107e-05
aF7.080524064619107e-05
aF7.080524064619107e-05
aF7.080524064619107e-05
aF7.080524064619107e-05
aF7.080524064619107e-05
aF7.080524064619107e-05
aF7.080524064619107e-05
aF7.080524064619107e-05
aF7.080524064619107e-05
aF7.080524064619107e-05
aF7.080524064619107e-05
aF7.080524064619107e-05
aF7.080524064619107e-05
aF7.080524064619107e-05
aF7.080524064619107e-05
aF7.080524064619107e-05
aF7.080524064619107e-05
aF7.080524064619107e-05
aF7.080524064619107e-05
aF7.080524064619107e-05
aF7.080524064619107e-05
aF7.080524064619107e-05
aF7.080524064619107e-05
aF7.080524064619107e-05
aF7.080524064619107e-05
aF7.080524064619107e-05
aF7.080524064619107e-05
aF7.080524064619107e-05
aF7.080524064619107e-05
aF7.080524064619107e-05
aF7.080524064619107e-05
aF7.080524064619107e-05
aF7.080524064619107e-05
aF7.080524064619107e-05
aF7.080524064619107e-05
aF7.080524064619107e-05
aF7.080524064619107e-05
aF7.080524064619107e-05
aF7.080524064619107e-05
aF7.080524064619107e-05
aF7.080524064619107e-05
aF7.080524064619107e-05
aF7.080524064619107e-05
aF7.080524064619107e-05
aF7.080524064619107e-05
aF7.080524064619107e-05
aF7.080524064619107e-05
aF7.080524064619107e-05
aF7.080524064619107e-05
aF7.080524064619107e-05
aF7.080524064619107e-05
aF7.080524064619107e-05
aF7.080524064619107e-05
aF7.080524064619107e-05
aF7.080524064619107e-05
aF7.080524064619107e-05
aF7.080524064619107e-05
aF7.080524064619107e-05
aF7.080524064619107e-05
aF7.080524064619107e-05
aF7.080524064619107e-05
aF7.080524064619107e-05
aF7.080524064619107e-05
aF7.080524064619107e-05
aaa(lp10
(lp11
F3.5098525222590966e-05
aF3.5098525222590966e-05
aF3.5098525222590966e-05
aF3.5098525222590966e-05
aF3.5098525222590966e-05
aF3.5098525222590966e-05
aF3.5098525222590966e-05
aF3.5098525222590966e-05
aF3.5098525222590966e-05
aF3.5098525222590966e-05
aF3.5098525222590966e-05
aF3.5098525222590966e-05
aF3.5098525222590966e-05
aF3.5098525222590966e-05
aF3.5098525222590966e-05
aF3.5098525222590966e-05
aF3.5098525222590966e-05
aF3.5098525222590966e-05
aF3.5098525222590966e-05
aF3.5098525222590966e-05
aF3.5098525222590966e-05
aF3.5098525222590966e-05
aF3.5098525222590966e-05
aF3.5098525222590966e-05
aF3.5098525222590966e-05
aF3.5098525222590966e-05
aF3.5098525222590966e-05
aF3.5098525222590966e-05
aF3.5098525222590966e-05
aF3.5098525222590966e-05
aF3.5098525222590966e-05
aF3.5098525222590966e-05
aF3.5098525222590966e-05
aF3.5098525222590966e-05
aF3.5098525222590966e-05
aF3.5098525222590966e-05
aF3.5098525222590966e-05
aF3.5098525222590966e-05
aF3.5098525222590966e-05
aF3.5098525222590966e-05
aF3.5098525222590966e-05
aF3.5098525222590966e-05
aF3.5098525222590966e-05
aF3.5098525222590966e-05
aF3.5098525222590966e-05
aF3.5098525222590966e-05
aF3.5098525222590966e-05
aF3.5098525222590966e-05
aF3.5098525222590966e-05
aF3.5098525222590966e-05
aF3.5098525222590966e-05
aF3.5098525222590966e-05
aF3.5098525222590966e-05
aF3.5098525222590966e-05
aF3.5098525222590966e-05
aF3.5098525222590966e-05
aF3.5098525222590966e-05
aF3.5098525222590966e-05
aF3.5098525222590966e-05
aF3.5098525222590966e-05
aF3.5098525222590966e-05
aF3.5098525222590966e-05
aF3.5098525222590966e-05
aF3.5098525222590966e-05
aF3.5098525222590966e-05
aF3.5098525222590966e-05
aF3.5098525222590966e-05
aF3.5098525222590966e-05
aF3.5098525222590966e-05
aF3.5098525222590966e-05
aF3.5098525222590966e-05
aF3.5098525222590966e-05
aF3.5098525222590966e-05
aF3.5098525222590966e-05
aF3.5098525222590966e-05
aF3.5098525222590966e-05
aF3.5098525222590966e-05
aF3.5098525222590966e-05
aF3.5098525222590966e-05
aF3.5098525222590966e-05
aF3.5098525222590966e-05
aF3.5098525222590966e-05
aF3.5098525222590966e-05
aF3.5098525222590966e-05
aF3.5098525222590966e-05
aF3.5098525222590966e-05
aF3.5098525222590966e-05
aF3.5098525222590966e-05
aF3.5098525222590966e-05
aF3.5098525222590966e-05
aF3.5098525222590966e-05
aF3.5098525222590966e-05
aF3.5098525222590966e-05
aF3.5098525222590966e-05
aF3.5098525222590966e-05
aF3.5098525222590966e-05
aF3.5098525222590966e-05
aF3.5098525222590966e-05
aF3.5098525222590966e-05
aF3.5098525222590966e-05
aF3.5098525222590966e-05
aF3.5098525222590966e-05
aF3.5098525222590966e-05
aF3.5098525222590966e-05
aF3.5098525222590966e-05
aF3.5098525222590966e-05
aF3.5098525222590966e-05
aF3.5098525222590966e-05
aF3.5098525222590966e-05
aF3.5098525222590966e-05
aF3.5098525222590966e-05
aF3.5098525222590966e-05
aF3.5098525222590966e-05
aF3.5098525222590966e-05
aF3.5098525222590966e-05
aF3.5098525222590966e-05
aF3.5098525222590966e-05
aF3.5098525222590966e-05
aF3.5098525222590966e-05
aF3.5098525222590966e-05
aF3.5098525222590966e-05
aF3.5098525222590966e-05
aF3.5098525222590966e-05
aF3.5098525222590966e-05
aF3.5098525222590966e-05
aF3.5098525222590966e-05
aF3.5098525222590966e-05
aF3.5098525222590966e-05
aF3.5098525222590966e-05
aF3.5098525222590966e-05
aF3.5098525222590966e-05
aF3.5098525222590966e-05
aF3.5098525222590966e-05
aF3.5098525222590966e-05
aF3.5098525222590966e-05
aF3.5098525222590966e-05
aF3.5098525222590966e-05
aF3.5098525222590966e-05
aF3.5098525222590966e-05
aF3.5098525222590966e-05
aF3.5098525222590966e-05
aF3.5098525222590966e-05
aF3.5098525222590966e-05
aF3.5098525222590966e-05
aF3.5098525222590966e-05
aF3.5098525222590966e-05
aF3.5098525222590966e-05
aF3.5098525222590966e-05
aF3.5098525222590966e-05
aF3.5098525222590966e-05
aF3.5098525222590966e-05
aF3.5098525222590966e-05
aF3.5098525222590966e-05
aF3.5098525222590966e-05
aF3.5098525222590966e-05
aF3.5098525222590966e-05
aF3.5098525222590966e-05
aF3.5098525222590966e-05
aF3.5098525222590966e-05
aF3.5098525222590966e-05
aF3.5098525222590966e-05
aF3.5098525222590966e-05
aF3.5098525222590966e-05
aF3.5098525222590966e-05
aF3.5098525222590966e-05
aF3.5098525222590966e-05
aF3.5098525222590966e-05
aF3.5098525222590966e-05
aF3.5098525222590966e-05
aF3.5098525222590966e-05
aF3.5098525222590966e-05
aF3.5098525222590966e-05
aF3.5098525222590966e-05
aF3.5098525222590966e-05
aF3.5098525222590966e-05
aF3.5098525222590966e-05
aF3.5098525222590966e-05
aF3.5098525222590966e-05
aF3.5098525222590966e-05
aF3.5098525222590966e-05
aF3.5098525222590966e-05
aF3.5098525222590966e-05
aF3.5098525222590966e-05
aF3.5098525222590966e-05
aF3.5098525222590966e-05
aF3.5098525222590966e-05
aF3.5098525222590966e-05
aF3.5098525222590966e-05
aF3.5098525222590966e-05
aF3.5098525222590966e-05
aF3.5098525222590966e-05
aF3.5098525222590966e-05
aF3.5098525222590966e-05
aF3.5098525222590966e-05
aF3.5098525222590966e-05
aF3.5098525222590966e-05
aF3.5098525222590966e-05
aF3.5098525222590966e-05
aF3.5098525222590966e-05
aF3.5098525222590966e-05
aF3.5098525222590966e-05
aF3.5098525222590966e-05
aF3.5098525222590966e-05
aF3.5098525222590966e-05
aF3.5098525222590966e-05
aF3.5098525222590966e-05
aF3.5098525222590966e-05
aF3.5098525222590966e-05
aF3.5098525222590966e-05
aF3.5098525222590966e-05
aF3.5098525222590966e-05
aF3.5098525222590966e-05
aF3.5098525222590966e-05
aF3.5098525222590966e-05
aF3.5098525222590966e-05
aF3.5098525222590966e-05
aF3.5098525222590966e-05
aF3.5098525222590966e-05
aF3.5098525222590966e-05
aF3.5098525222590966e-05
aF3.5098525222590966e-05
aF3.5098525222590966e-05
aF3.5098525222590966e-05
aF3.5098525222590966e-05
aF3.5098525222590966e-05
aF3.5098525222590966e-05
aF3.5098525222590966e-05
aF3.5098525222590966e-05
aF3.5098525222590966e-05
aF3.5098525222590966e-05
aF3.5098525222590966e-05
aF3.5098525222590966e-05
aF3.5098525222590966e-05
aF3.5098525222590966e-05
aF3.5098525222590966e-05
aF3.5098525222590966e-05
aF3.5098525222590966e-05
aF3.5098525222590966e-05
aF3.5098525222590966e-05
aF3.5098525222590966e-05
aF3.5098525222590966e-05
aF3.5098525222590966e-05
aF3.5098525222590966e-05
aF3.5098525222590966e-05
aF3.5098525222590966e-05
aF3.5098525222590966e-05
aF3.5098525222590966e-05
aF3.5098525222590966e-05
aF3.5098525222590966e-05
aF3.5098525222590966e-05
aF3.5098525222590966e-05
aF3.5098525222590966e-05
aF3.5098525222590966e-05
aF3.5098525222590966e-05
aF3.5098525222590966e-05
aF3.5098525222590966e-05
aF3.5098525222590966e-05
aF3.5098525222590966e-05
aF3.5098525222590966e-05
aF3.5098525222590966e-05
aF3.5098525222590966e-05
aF3.5098525222590966e-05
aF3.5098525222590966e-05
aF3.5098525222590966e-05
aF3.5098525222590966e-05
aF3.5098525222590966e-05
aF3.5098525222590966e-05
aF3.5098525222590966e-05
aF3.5098525222590966e-05
aF3.5098525222590966e-05
aF3.5098525222590966e-05
aF3.5098525222590966e-05
aF3.5098525222590966e-05
aF3.5098525222590966e-05
aF3.5098525222590966e-05
aF3.5098525222590966e-05
aF3.5098525222590966e-05
aF3.5098525222590966e-05
aF3.5098525222590966e-05
aF3.5098525222590966e-05
aF3.5098525222590966e-05
aF3.5098525222590966e-05
aF3.5098525222590966e-05
aF3.5098525222590966e-05
aF3.5098525222590966e-05
aF3.5098525222590966e-05
aF3.5098525222590966e-05
aF3.5098525222590966e-05
aF3.5098525222590966e-05
aF3.5098525222590966e-05
aF3.5098525222590966e-05
aF3.5098525222590966e-05
aF3.5098525222590966e-05
aF3.5098525222590966e-05
aF3.5098525222590966e-05
aF3.5098525222590966e-05
aF3.5098525222590966e-05
aF3.5098525222590966e-05
aF3.5098525222590966e-05
aF3.5098525222590966e-05
aF3.5098525222590966e-05
aF3.5098525222590966e-05
aF3.5098525222590966e-05
aF3.5098525222590966e-05
aF3.5098525222590966e-05
aF3.5098525222590966e-05
aF3.5098525222590966e-05
aF3.5098525222590966e-05
aF3.5098525222590966e-05
aF3.5098525222590966e-05
aF3.5098525222590966e-05
aF3.5098525222590966e-05
aF3.5098525222590966e-05
aF3.5098525222590966e-05
aF3.5098525222590966e-05
aF3.5098525222590966e-05
aF3.5098525222590966e-05
aF3.5098525222590966e-05
aF3.5098525222590966e-05
aF3.5098525222590966e-05
aF3.5098525222590966e-05
aF3.5098525222590966e-05
aF3.5098525222590966e-05
aF3.5098525222590966e-05
aF3.5098525222590966e-05
aF3.5098525222590966e-05
aF3.5098525222590966e-05
aF3.5098525222590966e-05
aF3.5098525222590966e-05
aF3.5098525222590966e-05
aF3.5098525222590966e-05
aF3.5098525222590966e-05
aF3.5098525222590966e-05
aF3.5098525222590966e-05
aF3.5098525222590966e-05
aF3.5098525222590966e-05
aF3.5098525222590966e-05
aF3.5098525222590966e-05
aF3.5098525222590966e-05
aF3.5098525222590966e-05
aF3.5098525222590966e-05
aF3.5098525222590966e-05
aF3.5098525222590966e-05
aF3.5098525222590966e-05
aF3.5098525222590966e-05
aF3.5098525222590966e-05
aF3.5098525222590966e-05
aF3.5098525222590966e-05
aF3.5098525222590966e-05
aF3.5098525222590966e-05
aF3.5098525222590966e-05
aF3.5098525222590966e-05
aF3.5098525222590966e-05
aF3.5098525222590966e-05
aF3.5098525222590966e-05
aF3.5098525222590966e-05
aF3.5098525222590966e-05
aF3.5098525222590966e-05
aF3.5098525222590966e-05
aF3.5098525222590966e-05
aF3.5098525222590966e-05
aF3.5098525222590966e-05
aF3.5098525222590966e-05
aF3.5098525222590966e-05
aF3.5098525222590966e-05
aF3.5098525222590966e-05
aF3.5098525222590966e-05
aF3.5098525222590966e-05
aF3.5098525222590966e-05
aF3.5098525222590966e-05
aF3.5098525222590966e-05
aF3.5098525222590966e-05
aF3.5098525222590966e-05
aF3.5098525222590966e-05
aF3.5098525222590966e-05
aF3.5098525222590966e-05
aF3.5098525222590966e-05
aF3.5098525222590966e-05
aF3.5098525222590966e-05
aF3.5098525222590966e-05
aF3.5098525222590966e-05
aF3.5098525222590966e-05
aF3.5098525222590966e-05
aF3.5098525222590966e-05
aF3.5098525222590966e-05
aF3.5098525222590966e-05
aF3.5098525222590966e-05
aF3.5098525222590966e-05
aF3.5098525222590966e-05
aF3.5098525222590966e-05
aF3.5098525222590966e-05
aF3.5098525222590966e-05
aF3.5098525222590966e-05
aF3.5098525222590966e-05
aF3.5098525222590966e-05
aF3.5098525222590966e-05
aF3.5098525222590966e-05
aF3.5098525222590966e-05
aF3.5098525222590966e-05
aF3.5098525222590966e-05
aF3.5098525222590966e-05
aF3.5098525222590966e-05
aF3.5098525222590966e-05
aF3.5098525222590966e-05
aF3.5098525222590966e-05
aF3.5098525222590966e-05
aF3.5098525222590966e-05
aF3.5098525222590966e-05
aF3.5098525222590966e-05
aF3.5098525222590966e-05
aF3.5098525222590966e-05
aF3.5098525222590966e-05
aF3.5098525222590966e-05
aF3.5098525222590966e-05
aF3.5098525222590966e-05
aF3.5098525222590966e-05
aF3.5098525222590966e-05
aF3.5098525222590966e-05
aF3.5098525222590966e-05
aF3.5098525222590966e-05
aF3.5098525222590966e-05
aF3.5098525222590966e-05
aF3.5098525222590966e-05
aF3.5098525222590966e-05
aF3.5098525222590966e-05
aF3.5098525222590966e-05
aF3.5098525222590966e-05
aF3.5098525222590966e-05
aF3.5098525222590966e-05
aF3.5098525222590966e-05
aF3.5098525222590966e-05
aF3.5098525222590966e-05
aF3.5098525222590966e-05
aF3.5098525222590966e-05
aF3.5098525222590966e-05
aF3.5098525222590966e-05
aF3.5098525222590966e-05
aF3.5098525222590966e-05
aF3.5098525222590966e-05
aF3.5098525222590966e-05
aF3.5098525222590966e-05
aF3.5098525222590966e-05
aF3.5098525222590966e-05
aF3.5098525222590966e-05
aF3.5098525222590966e-05
aF3.5098525222590966e-05
aF3.5098525222590966e-05
aF3.5098525222590966e-05
aF3.5098525222590966e-05
aF3.5098525222590966e-05
aF3.5098525222590966e-05
aF3.5098525222590966e-05
aF3.5098525222590966e-05
aF3.5098525222590966e-05
aF3.5098525222590966e-05
aF3.5098525222590966e-05
aF3.5098525222590966e-05
aF3.5098525222590966e-05
aF3.5098525222590966e-05
aF3.5098525222590966e-05
aF3.5098525222590966e-05
aF3.5098525222590966e-05
aF3.5098525222590966e-05
aF3.5098525222590966e-05
aF3.5098525222590966e-05
aF3.5098525222590966e-05
aF3.5098525222590966e-05
aF3.5098525222590966e-05
aF3.5098525222590966e-05
aF3.5098525222590966e-05
aF3.5098525222590966e-05
aF3.5098525222590966e-05
aF3.5098525222590966e-05
aF3.5098525222590966e-05
aF3.5098525222590966e-05
aF3.5098525222590966e-05
aF3.5098525222590966e-05
aF3.5098525222590966e-05
aF3.5098525222590966e-05
aF3.5098525222590966e-05
aF3.5098525222590966e-05
aF3.5098525222590966e-05
aF3.5098525222590966e-05
aF3.5098525222590966e-05
aF3.5098525222590966e-05
aF3.5098525222590966e-05
aF3.5098525222590966e-05
aF3.5098525222590966e-05
aF3.5098525222590966e-05
aF3.5098525222590966e-05
aF3.5098525222590966e-05
aF3.5098525222590966e-05
aF3.5098525222590966e-05
aF3.5098525222590966e-05
aF3.5098525222590966e-05
aF3.5098525222590966e-05
aF3.5098525222590966e-05
aF3.5098525222590966e-05
aF3.5098525222590966e-05
aF3.5098525222590966e-05
aF3.5098525222590966e-05
aF3.5098525222590966e-05
aF3.5098525222590966e-05
aF3.5098525222590966e-05
aF3.5098525222590966e-05
aF3.5098525222590966e-05
aF3.5098525222590966e-05
aF3.5098525222590966e-05
aF3.5098525222590966e-05
aF3.5098525222590966e-05
aF3.5098525222590966e-05
aF3.5098525222590966e-05
aF3.5098525222590966e-05
aF3.5098525222590966e-05
aF3.5098525222590966e-05
aF3.5098525222590966e-05
aF3.5098525222590966e-05
aF3.5098525222590966e-05
aF3.5098525222590966e-05
aF3.5098525222590966e-05
aF3.5098525222590966e-05
aF3.5098525222590966e-05
aF3.5098525222590966e-05
aF3.5098525222590966e-05
aF3.5098525222590966e-05
aF3.5098525222590966e-05
aF3.5098525222590966e-05
aF3.5098525222590966e-05
aF3.5098525222590966e-05
aF3.5098525222590966e-05
aF3.5098525222590966e-05
aF3.5098525222590966e-05
aF3.5098525222590966e-05
aF3.5098525222590966e-05
aF3.5098525222590966e-05
aF3.5098525222590966e-05
aF3.5098525222590966e-05
aF3.5098525222590966e-05
aF3.5098525222590966e-05
aF3.5098525222590966e-05
aF3.5098525222590966e-05
aF3.5098525222590966e-05
aF3.5098525222590966e-05
aF3.5098525222590966e-05
aF3.5098525222590966e-05
aF3.5098525222590966e-05
aF3.5098525222590966e-05
aF3.5098525222590966e-05
aF3.5098525222590966e-05
aF3.5098525222590966e-05
aF3.5098525222590966e-05
aF3.5098525222590966e-05
aF3.5098525222590966e-05
aF3.5098525222590966e-05
aF3.5098525222590966e-05
aF3.5098525222590966e-05
aF3.5098525222590966e-05
aF3.5098525222590966e-05
aF3.5098525222590966e-05
aF3.5098525222590966e-05
aF3.5098525222590966e-05
aF3.5098525222590966e-05
aF3.5098525222590966e-05
aF3.5098525222590966e-05
aF3.5098525222590966e-05
aF3.5098525222590966e-05
aF3.5098525222590966e-05
aF3.5098525222590966e-05
aF3.5098525222590966e-05
aF3.5098525222590966e-05
aF3.5098525222590966e-05
aF3.5098525222590966e-05
aF3.5098525222590966e-05
aF3.5098525222590966e-05
aF3.5098525222590966e-05
aF3.5098525222590966e-05
aF3.5098525222590966e-05
aF3.5098525222590966e-05
aF3.5098525222590966e-05
aF3.5098525222590966e-05
aF3.5098525222590966e-05
aF3.5098525222590966e-05
aF3.5098525222590966e-05
aF3.5098525222590966e-05
aF3.5098525222590966e-05
aF3.5098525222590966e-05
aF3.5098525222590966e-05
aF3.5098525222590966e-05
aF3.5098525222590966e-05
aF3.5098525222590966e-05
aF3.5098525222590966e-05
aF3.5098525222590966e-05
aF3.5098525222590966e-05
aF3.5098525222590966e-05
aF3.5098525222590966e-05
aF3.5098525222590966e-05
aF3.5098525222590966e-05
aF3.5098525222590966e-05
aF3.5098525222590966e-05
aF3.5098525222590966e-05
aF3.5098525222590966e-05
aF3.5098525222590966e-05
aF3.5098525222590966e-05
aF3.5098525222590966e-05
aF3.5098525222590966e-05
aF3.5098525222590966e-05
aF3.5098525222590966e-05
aF3.5098525222590966e-05
aF3.5098525222590966e-05
aF3.5098525222590966e-05
aF3.5098525222590966e-05
aF3.5098525222590966e-05
aF3.5098525222590966e-05
aF3.5098525222590966e-05
aF3.5098525222590966e-05
aF3.5098525222590966e-05
aF3.5098525222590966e-05
aF3.5098525222590966e-05
aF3.5098525222590966e-05
aF3.5098525222590966e-05
aF3.5098525222590966e-05
aF3.5098525222590966e-05
aF3.5098525222590966e-05
aF3.5098525222590966e-05
aF3.5098525222590966e-05
aF3.5098525222590966e-05
aF3.5098525222590966e-05
aF3.5098525222590966e-05
aF3.5098525222590966e-05
aF3.5098525222590966e-05
aF3.5098525222590966e-05
aF3.5098525222590966e-05
aF3.5098525222590966e-05
aF3.5098525222590966e-05
aF3.5098525222590966e-05
aF3.5098525222590966e-05
aF3.5098525222590966e-05
aF3.5098525222590966e-05
aF3.5098525222590966e-05
aF3.5098525222590966e-05
aa(lp12
F3.5098525222590966e-05
aF3.5098525222590966e-05
aF3.5098525222590966e-05
aF3.5098525222590966e-05
aF3.5098525222590966e-05
aF3.5098525222590966e-05
aF3.5098525222590966e-05
aF3.5098525222590966e-05
aF3.5098525222590966e-05
aF3.5098525222590966e-05
aF3.5098525222590966e-05
aF3.5098525222590966e-05
aF3.5098525222590966e-05
aF3.5098525222590966e-05
aF3.5098525222590966e-05
aF3.5098525222590966e-05
aF3.5098525222590966e-05
aF3.5098525222590966e-05
aF3.5098525222590966e-05
aF3.5098525222590966e-05
aF3.5098525222590966e-05
aF3.5098525222590966e-05
aF3.5098525222590966e-05
aF3.5098525222590966e-05
aF3.5098525222590966e-05
aF3.5098525222590966e-05
aF3.5098525222590966e-05
aF3.5098525222590966e-05
aF3.5098525222590966e-05
aF3.5098525222590966e-05
aF3.5098525222590966e-05
aF3.5098525222590966e-05
aF3.5098525222590966e-05
aF3.5098525222590966e-05
aF3.5098525222590966e-05
aF3.5098525222590966e-05
aF3.5098525222590966e-05
aF3.5098525222590966e-05
aF3.5098525222590966e-05
aF3.5098525222590966e-05
aF3.5098525222590966e-05
aF3.5098525222590966e-05
aF3.5098525222590966e-05
aF3.5098525222590966e-05
aF3.5098525222590966e-05
aF3.5098525222590966e-05
aF3.5098525222590966e-05
aF3.5098525222590966e-05
aF3.5098525222590966e-05
aF3.5098525222590966e-05
aF3.5098525222590966e-05
aF3.5098525222590966e-05
aF3.5098525222590966e-05
aF3.5098525222590966e-05
aF3.5098525222590966e-05
aF3.5098525222590966e-05
aF3.5098525222590966e-05
aF3.5098525222590966e-05
aF3.5098525222590966e-05
aF3.5098525222590966e-05
aF3.5098525222590966e-05
aF3.5098525222590966e-05
aF3.5098525222590966e-05
aF3.5098525222590966e-05
aF3.5098525222590966e-05
aF3.5098525222590966e-05
aF3.5098525222590966e-05
aF3.5098525222590966e-05
aF3.5098525222590966e-05
aF3.5098525222590966e-05
aF3.5098525222590966e-05
aF3.5098525222590966e-05
aF3.5098525222590966e-05
aF3.5098525222590966e-05
aF3.5098525222590966e-05
aF3.5098525222590966e-05
aF3.5098525222590966e-05
aF3.5098525222590966e-05
aF3.5098525222590966e-05
aF3.5098525222590966e-05
aF3.5098525222590966e-05
aF3.5098525222590966e-05
aF3.5098525222590966e-05
aF3.5098525222590966e-05
aF3.5098525222590966e-05
aF3.5098525222590966e-05
aF3.5098525222590966e-05
aF3.5098525222590966e-05
aF3.5098525222590966e-05
aF3.5098525222590966e-05
aF3.5098525222590966e-05
aF3.5098525222590966e-05
aF3.5098525222590966e-05
aF3.5098525222590966e-05
aF3.5098525222590966e-05
aF3.5098525222590966e-05
aF3.5098525222590966e-05
aF3.5098525222590966e-05
aF3.5098525222590966e-05
aF3.5098525222590966e-05
aF3.5098525222590966e-05
aF3.5098525222590966e-05
aF3.5098525222590966e-05
aF3.5098525222590966e-05
aF3.5098525222590966e-05
aF3.5098525222590966e-05
aF3.5098525222590966e-05
aF3.5098525222590966e-05
aF3.5098525222590966e-05
aF3.5098525222590966e-05
aF3.5098525222590966e-05
aF3.5098525222590966e-05
aF3.5098525222590966e-05
aF3.5098525222590966e-05
aF3.5098525222590966e-05
aF3.5098525222590966e-05
aF3.5098525222590966e-05
aF3.5098525222590966e-05
aF3.5098525222590966e-05
aF3.5098525222590966e-05
aF3.5098525222590966e-05
aF3.5098525222590966e-05
aF3.5098525222590966e-05
aF3.5098525222590966e-05
aF3.5098525222590966e-05
aF3.5098525222590966e-05
aF3.5098525222590966e-05
aF3.5098525222590966e-05
aF3.5098525222590966e-05
aF3.5098525222590966e-05
aF3.5098525222590966e-05
aF3.5098525222590966e-05
aF3.5098525222590966e-05
aF3.5098525222590966e-05
aF3.5098525222590966e-05
aF3.5098525222590966e-05
aF3.5098525222590966e-05
aF3.5098525222590966e-05
aF3.5098525222590966e-05
aF3.5098525222590966e-05
aF3.5098525222590966e-05
aF3.5098525222590966e-05
aF3.5098525222590966e-05
aF3.5098525222590966e-05
aF3.5098525222590966e-05
aF3.5098525222590966e-05
aF3.5098525222590966e-05
aF3.5098525222590966e-05
aF3.5098525222590966e-05
aF3.5098525222590966e-05
aF3.5098525222590966e-05
aF3.5098525222590966e-05
aF3.5098525222590966e-05
aF3.5098525222590966e-05
aF3.5098525222590966e-05
aF3.5098525222590966e-05
aF3.5098525222590966e-05
aF3.5098525222590966e-05
aF3.5098525222590966e-05
aF3.5098525222590966e-05
aF3.5098525222590966e-05
aF3.5098525222590966e-05
aF3.5098525222590966e-05
aF3.5098525222590966e-05
aF3.5098525222590966e-05
aF3.5098525222590966e-05
aF3.5098525222590966e-05
aF3.5098525222590966e-05
aF3.5098525222590966e-05
aF3.5098525222590966e-05
aF3.5098525222590966e-05
aF3.5098525222590966e-05
aF3.5098525222590966e-05
aF3.5098525222590966e-05
aF3.5098525222590966e-05
aF3.5098525222590966e-05
aF3.5098525222590966e-05
aF3.5098525222590966e-05
aF3.5098525222590966e-05
aF3.5098525222590966e-05
aF3.5098525222590966e-05
aF3.5098525222590966e-05
aF3.5098525222590966e-05
aF3.5098525222590966e-05
aF3.5098525222590966e-05
aF3.5098525222590966e-05
aF3.5098525222590966e-05
aF3.5098525222590966e-05
aF3.5098525222590966e-05
aF3.5098525222590966e-05
aF3.5098525222590966e-05
aF3.5098525222590966e-05
aF3.5098525222590966e-05
aF3.5098525222590966e-05
aF3.5098525222590966e-05
aF3.5098525222590966e-05
aF3.5098525222590966e-05
aF3.5098525222590966e-05
aF3.5098525222590966e-05
aF3.5098525222590966e-05
aF3.5098525222590966e-05
aF3.5098525222590966e-05
aF3.5098525222590966e-05
aF3.5098525222590966e-05
aF3.5098525222590966e-05
aF3.5098525222590966e-05
aF3.5098525222590966e-05
aF3.5098525222590966e-05
aF3.5098525222590966e-05
aF3.5098525222590966e-05
aF3.5098525222590966e-05
aF3.5098525222590966e-05
aF3.5098525222590966e-05
aF3.5098525222590966e-05
aF3.5098525222590966e-05
aF3.5098525222590966e-05
aF3.5098525222590966e-05
aF3.5098525222590966e-05
aF3.5098525222590966e-05
aF3.5098525222590966e-05
aF3.5098525222590966e-05
aF3.5098525222590966e-05
aF3.5098525222590966e-05
aF3.5098525222590966e-05
aF3.5098525222590966e-05
aF3.5098525222590966e-05
aF3.5098525222590966e-05
aF3.5098525222590966e-05
aF3.5098525222590966e-05
aF3.5098525222590966e-05
aF3.5098525222590966e-05
aF3.5098525222590966e-05
aF3.5098525222590966e-05
aF3.5098525222590966e-05
aF3.5098525222590966e-05
aF3.5098525222590966e-05
aF3.5098525222590966e-05
aF3.5098525222590966e-05
aF3.5098525222590966e-05
aF3.5098525222590966e-05
aF3.5098525222590966e-05
aF3.5098525222590966e-05
aF3.5098525222590966e-05
aF3.5098525222590966e-05
aF3.5098525222590966e-05
aF3.5098525222590966e-05
aF3.5098525222590966e-05
aF3.5098525222590966e-05
aF3.5098525222590966e-05
aF3.5098525222590966e-05
aF3.5098525222590966e-05
aF3.5098525222590966e-05
aF3.5098525222590966e-05
aF3.5098525222590966e-05
aF3.5098525222590966e-05
aF3.5098525222590966e-05
aF3.5098525222590966e-05
aF3.5098525222590966e-05
aF3.5098525222590966e-05
aF3.5098525222590966e-05
aF3.5098525222590966e-05
aF3.5098525222590966e-05
aF3.5098525222590966e-05
aF3.5098525222590966e-05
aF3.5098525222590966e-05
aF3.5098525222590966e-05
aF3.5098525222590966e-05
aF3.5098525222590966e-05
aF3.5098525222590966e-05
aF3.5098525222590966e-05
aF3.5098525222590966e-05
aF3.5098525222590966e-05
aF3.5098525222590966e-05
aF3.5098525222590966e-05
aF3.5098525222590966e-05
aF3.5098525222590966e-05
aF3.5098525222590966e-05
aF3.5098525222590966e-05
aF3.5098525222590966e-05
aF3.5098525222590966e-05
aF3.5098525222590966e-05
aF3.5098525222590966e-05
aF3.5098525222590966e-05
aF3.5098525222590966e-05
aF3.5098525222590966e-05
aF3.5098525222590966e-05
aF3.5098525222590966e-05
aF3.5098525222590966e-05
aF3.5098525222590966e-05
aF3.5098525222590966e-05
aF3.5098525222590966e-05
aF3.5098525222590966e-05
aF3.5098525222590966e-05
aF3.5098525222590966e-05
aF3.5098525222590966e-05
aF3.5098525222590966e-05
aF3.5098525222590966e-05
aF3.5098525222590966e-05
aF3.5098525222590966e-05
aF3.5098525222590966e-05
aF3.5098525222590966e-05
aF3.5098525222590966e-05
aF3.5098525222590966e-05
aF3.5098525222590966e-05
aF3.5098525222590966e-05
aF3.5098525222590966e-05
aF3.5098525222590966e-05
aF3.5098525222590966e-05
aF3.5098525222590966e-05
aF3.5098525222590966e-05
aF3.5098525222590966e-05
aF3.5098525222590966e-05
aF3.5098525222590966e-05
aF3.5098525222590966e-05
aF3.5098525222590966e-05
aF3.5098525222590966e-05
aF3.5098525222590966e-05
aF3.5098525222590966e-05
aF3.5098525222590966e-05
aF3.5098525222590966e-05
aF3.5098525222590966e-05
aF3.5098525222590966e-05
aF3.5098525222590966e-05
aF3.5098525222590966e-05
aF3.5098525222590966e-05
aF3.5098525222590966e-05
aF3.5098525222590966e-05
aF3.5098525222590966e-05
aF3.5098525222590966e-05
aF3.5098525222590966e-05
aF3.5098525222590966e-05
aF3.5098525222590966e-05
aF3.5098525222590966e-05
aF3.5098525222590966e-05
aF3.5098525222590966e-05
aF3.5098525222590966e-05
aF3.5098525222590966e-05
aF3.5098525222590966e-05
aF3.5098525222590966e-05
aF3.5098525222590966e-05
aF3.5098525222590966e-05
aF3.5098525222590966e-05
aF3.5098525222590966e-05
aF3.5098525222590966e-05
aF3.5098525222590966e-05
aF3.5098525222590966e-05
aF3.5098525222590966e-05
aF3.5098525222590966e-05
aF3.5098525222590966e-05
aF3.5098525222590966e-05
aF3.5098525222590966e-05
aF3.5098525222590966e-05
aF3.5098525222590966e-05
aF3.5098525222590966e-05
aF3.5098525222590966e-05
aF3.5098525222590966e-05
aF3.5098525222590966e-05
aF3.5098525222590966e-05
aF3.5098525222590966e-05
aF3.5098525222590966e-05
aF3.5098525222590966e-05
aF3.5098525222590966e-05
aF3.5098525222590966e-05
aF3.5098525222590966e-05
aF3.5098525222590966e-05
aF3.5098525222590966e-05
aF3.5098525222590966e-05
aF3.5098525222590966e-05
aF3.5098525222590966e-05
aF3.5098525222590966e-05
aF3.5098525222590966e-05
aF3.5098525222590966e-05
aF3.5098525222590966e-05
aF3.5098525222590966e-05
aF3.5098525222590966e-05
aF3.5098525222590966e-05
aF3.5098525222590966e-05
aF3.5098525222590966e-05
aF3.5098525222590966e-05
aF3.5098525222590966e-05
aF3.5098525222590966e-05
aF3.5098525222590966e-05
aF3.5098525222590966e-05
aF3.5098525222590966e-05
aF3.5098525222590966e-05
aF3.5098525222590966e-05
aF3.5098525222590966e-05
aF3.5098525222590966e-05
aF3.5098525222590966e-05
aF3.5098525222590966e-05
aF3.5098525222590966e-05
aF3.5098525222590966e-05
aF3.5098525222590966e-05
aF3.5098525222590966e-05
aF3.5098525222590966e-05
aF3.5098525222590966e-05
aF3.5098525222590966e-05
aF3.5098525222590966e-05
aF3.5098525222590966e-05
aF3.5098525222590966e-05
aF3.5098525222590966e-05
aF3.5098525222590966e-05
aF3.5098525222590966e-05
aF3.5098525222590966e-05
aF3.5098525222590966e-05
aF3.5098525222590966e-05
aF3.5098525222590966e-05
aF3.5098525222590966e-05
aF3.5098525222590966e-05
aF3.5098525222590966e-05
aF3.5098525222590966e-05
aF3.5098525222590966e-05
aF3.5098525222590966e-05
aF3.5098525222590966e-05
aF3.5098525222590966e-05
aF3.5098525222590966e-05
aF3.5098525222590966e-05
aF3.5098525222590966e-05
aF3.5098525222590966e-05
aF3.5098525222590966e-05
aF3.5098525222590966e-05
aF3.5098525222590966e-05
aF3.5098525222590966e-05
aF3.5098525222590966e-05
aF3.5098525222590966e-05
aF3.5098525222590966e-05
aF3.5098525222590966e-05
aF3.5098525222590966e-05
aF3.5098525222590966e-05
aF3.5098525222590966e-05
aF3.5098525222590966e-05
aF3.5098525222590966e-05
aF3.5098525222590966e-05
aF3.5098525222590966e-05
aF3.5098525222590966e-05
aF3.5098525222590966e-05
aF3.5098525222590966e-05
aF3.5098525222590966e-05
aF3.5098525222590966e-05
aF3.5098525222590966e-05
aF3.5098525222590966e-05
aF3.5098525222590966e-05
aF3.5098525222590966e-05
aF3.5098525222590966e-05
aF3.5098525222590966e-05
aF3.5098525222590966e-05
aF3.5098525222590966e-05
aF3.5098525222590966e-05
aF3.5098525222590966e-05
aF3.5098525222590966e-05
aF3.5098525222590966e-05
aF3.5098525222590966e-05
aF3.5098525222590966e-05
aF3.5098525222590966e-05
aF3.5098525222590966e-05
aF3.5098525222590966e-05
aF3.5098525222590966e-05
aF3.5098525222590966e-05
aF3.5098525222590966e-05
aF3.5098525222590966e-05
aF3.5098525222590966e-05
aF3.5098525222590966e-05
aF3.5098525222590966e-05
aF3.5098525222590966e-05
aF3.5098525222590966e-05
aF3.5098525222590966e-05
aF3.5098525222590966e-05
aF3.5098525222590966e-05
aF3.5098525222590966e-05
aF3.5098525222590966e-05
aF3.5098525222590966e-05
aF3.5098525222590966e-05
aF3.5098525222590966e-05
aF3.5098525222590966e-05
aF3.5098525222590966e-05
aF3.5098525222590966e-05
aF3.5098525222590966e-05
aF3.5098525222590966e-05
aF3.5098525222590966e-05
aF3.5098525222590966e-05
aF3.5098525222590966e-05
aF3.5098525222590966e-05
aF3.5098525222590966e-05
aF3.5098525222590966e-05
aF3.5098525222590966e-05
aF3.5098525222590966e-05
aF3.5098525222590966e-05
aF3.5098525222590966e-05
aF3.5098525222590966e-05
aF3.5098525222590966e-05
aF3.5098525222590966e-05
aF3.5098525222590966e-05
aF3.5098525222590966e-05
aF3.5098525222590966e-05
aF3.5098525222590966e-05
aF3.5098525222590966e-05
aF3.5098525222590966e-05
aF3.5098525222590966e-05
aF3.5098525222590966e-05
aF3.5098525222590966e-05
aF3.5098525222590966e-05
aF3.5098525222590966e-05
aF3.5098525222590966e-05
aF3.5098525222590966e-05
aF3.5098525222590966e-05
aF3.5098525222590966e-05
aF3.5098525222590966e-05
aF3.5098525222590966e-05
aF3.5098525222590966e-05
aF3.5098525222590966e-05
aF3.5098525222590966e-05
aF3.5098525222590966e-05
aF3.5098525222590966e-05
aF3.5098525222590966e-05
aF3.5098525222590966e-05
aF3.5098525222590966e-05
aF3.5098525222590966e-05
aF3.5098525222590966e-05
aF3.5098525222590966e-05
aF3.5098525222590966e-05
aF3.5098525222590966e-05
aF3.5098525222590966e-05
aF3.5098525222590966e-05
aF3.5098525222590966e-05
aF3.5098525222590966e-05
aF3.5098525222590966e-05
aF3.5098525222590966e-05
aF3.5098525222590966e-05
aF3.5098525222590966e-05
aF3.5098525222590966e-05
aF3.5098525222590966e-05
aF3.5098525222590966e-05
aF3.5098525222590966e-05
aF3.5098525222590966e-05
aF3.5098525222590966e-05
aF3.5098525222590966e-05
aF3.5098525222590966e-05
aF3.5098525222590966e-05
aF3.5098525222590966e-05
aF3.5098525222590966e-05
aF3.5098525222590966e-05
aF3.5098525222590966e-05
aF3.5098525222590966e-05
aF3.5098525222590966e-05
aF3.5098525222590966e-05
aF3.5098525222590966e-05
aF3.5098525222590966e-05
aF3.5098525222590966e-05
aF3.5098525222590966e-05
aF3.5098525222590966e-05
aF3.5098525222590966e-05
aF3.5098525222590966e-05
aF3.5098525222590966e-05
aF3.5098525222590966e-05
aF3.5098525222590966e-05
aF3.5098525222590966e-05
aF3.5098525222590966e-05
aF3.5098525222590966e-05
aF3.5098525222590966e-05
aF3.5098525222590966e-05
aF3.5098525222590966e-05
aF3.5098525222590966e-05
aF3.5098525222590966e-05
aF3.5098525222590966e-05
aF3.5098525222590966e-05
aF3.5098525222590966e-05
aF3.5098525222590966e-05
aF3.5098525222590966e-05
aF3.5098525222590966e-05
aF3.5098525222590966e-05
aF3.5098525222590966e-05
aF3.5098525222590966e-05
aF3.5098525222590966e-05
aF3.5098525222590966e-05
aF3.5098525222590966e-05
aF3.5098525222590966e-05
aF3.5098525222590966e-05
aF3.5098525222590966e-05
aF3.5098525222590966e-05
aF3.5098525222590966e-05
aF3.5098525222590966e-05
aF3.5098525222590966e-05
aF3.5098525222590966e-05
aF3.5098525222590966e-05
aF3.5098525222590966e-05
aF3.5098525222590966e-05
aF3.5098525222590966e-05
aF3.5098525222590966e-05
aF3.5098525222590966e-05
aF3.5098525222590966e-05
aF3.5098525222590966e-05
aF3.5098525222590966e-05
aF3.5098525222590966e-05
aF3.5098525222590966e-05
aF3.5098525222590966e-05
aF3.5098525222590966e-05
aF3.5098525222590966e-05
aF3.5098525222590966e-05
aF3.5098525222590966e-05
aF3.5098525222590966e-05
aF3.5098525222590966e-05
aF3.5098525222590966e-05
aF3.5098525222590966e-05
aF3.5098525222590966e-05
aF3.5098525222590966e-05
aF3.5098525222590966e-05
aF3.5098525222590966e-05
aF3.5098525222590966e-05
aF3.5098525222590966e-05
aF3.5098525222590966e-05
aF3.5098525222590966e-05
aF3.5098525222590966e-05
aF3.5098525222590966e-05
aF3.5098525222590966e-05
aF3.5098525222590966e-05
aF3.5098525222590966e-05
aF3.5098525222590966e-05
aF3.5098525222590966e-05
aF3.5098525222590966e-05
aF3.5098525222590966e-05
aF3.5098525222590966e-05
aF3.5098525222590966e-05
aF3.5098525222590966e-05
aF3.5098525222590966e-05
aF3.5098525222590966e-05
aF3.5098525222590966e-05
aF3.5098525222590966e-05
aF3.5098525222590966e-05
aF3.5098525222590966e-05
aF3.5098525222590966e-05
aF3.5098525222590966e-05
aF3.5098525222590966e-05
aF3.5098525222590966e-05
aF3.5098525222590966e-05
aF3.5098525222590966e-05
aF3.5098525222590966e-05
aF3.5098525222590966e-05
aF3.5098525222590966e-05
aF3.5098525222590966e-05
aF3.5098525222590966e-05
aaa.