(lp0
(lp1
(lp2
F0.0
aF0.0
aF0.0
aF0.0
aF0.0
aF0.0
aF0.0
aF0.0
aF0.0
aF0.0
aF0.0
aF0.0
aF0.0
aF0.0
aF0.0
aF0.0
aF0.0
aF0.0
aF0.0
aF0.0
aF0.0
aF0.0
aF0.0
aF0.0
aF0.0
aF0.0
aF0.0
aF0.0
aF0.0
aF0.0
aF0.0
aF0.0
aF0.0
aF0.0
aF0.0
aF0.0
aF0.0
aF0.0
aF0.0
aF0.0
aF0.0
aF0.0
aF0.0
aF0.0
aF0.0
aF0.0
aF0.0
aF0.0
aF0.0
aF0.0
aF0.0
aF0.0
aF0.0
aF0.0
aF0.0
aF0.0
aF0.0
aF0.0
aF0.0
aF0.0
aF0.0
aF0.0
aF0.0
aF0.0
aF0.0
aF0.0
aF0.0
aF0.0
aF0.0
aF0.0
aF0.0
aF0.0
aF0.0
aF0.0
aF0.0
aF0.0
aF0.0
aF0.0
aF0.0
aF0.0
aF0.0
aF0.0
aF0.0
aF0.0
aF0.0
aF0.0
aF0.0
aF0.0
aF0.0
aF0.0
aF0.0
aF0.0
aF0.0
aF0.0
aF0.0
aF0.0
aF0.0
aF0.0
aF0.0
aF0.0
aF0.0
aF0.0
aF0.0
aF0.0
aF0.0
aF0.0
aF0.0
aF0.0
aF0.0
aF0.0
aF0.0
aF0.0
aF0.0
aF0.0
aF0.0
aF0.0
aF0.0
aF0.0
aF0.0
aF0.0
aF0.0
aF0.0
aF0.0
aF0.0
aF0.0
aF0.0
aF0.0
aF0.0
aF0.0
aF0.0
aF0.0
aF0.0
aF0.0
aF0.0
aF0.0
aF0.0
aF0.0
aF0.0
aF0.0
aF0.0
aF0.0
aF0.0
aF0.0
aF0.0
aF0.0
aF0.0
aF0.0
aF0.0
aF0.0
aF0.0
aF0.0
aF0.0
aF0.0
aF0.0
aF0.0
aF0.0
aF0.0
aF0.0
aF0.0
aF0.0
aF0.0
aF0.0
aF0.0
aF0.0
aF0.0
aF0.0
aF0.0
aF0.0
aF0.0
aF0.0
aF0.0
aF0.0
aF0.0
aF0.0
aF0.0
aF0.0
aF0.0
aF0.0
aF0.0
aF0.0
aF0.0
aF0.0
aF0.0
aF0.0
aF0.0
aF0.0
aF0.0
aF0.0
aF0.0
aF0.0
aF0.0
aF0.0
aF0.0
aF0.0
aF0.0
aF0.0
aF0.0
aF0.0
aF0.0
aF0.0
aF0.0
aF0.0
aF0.0
aF0.0
aF0.0
aF0.0
aF0.0
aF0.0
aF0.0
aF0.0
aF0.0
aF0.0
aF0.0
aF0.0
aF0.0
aF0.0
aF0.0
aF0.0
aF0.0
aF0.0
aF0.0
aF0.0
aF0.0
aF0.0
aF0.0
aF0.0
aF0.0
aF0.0
aF0.0
aF0.0
aF0.0
aF0.0
aF0.0
aF0.0
aF0.0
aF0.0
aF0.0
aF0.0
aF0.0
aF0.0
aF0.0
aF0.0
aF0.0
aF0.0
aF0.0
aF0.0
aF0.0
aF0.0
aF0.0
aF0.0
aF0.0
aF0.0
aF0.0
aF0.0
aF0.0
aF0.0
aF0.0
aF0.0
aF0.0
aF0.0
aF0.0
aF0.0
aF0.0
aF0.0
aF0.0
aF0.0
aF0.0
aF0.0
aF0.0
aF0.0
aF0.0
aF0.0
aF0.0
aF0.0
aF0.0
aF0.0
aF0.0
aF0.0
aF0.0
aF0.0
aF0.0
aF0.0
aF0.0
aF0.0
aF0.0
aF0.0
aF0.0
aF0.0
aF0.0
aF0.0
aF0.0
aF0.0
aF0.0
aF0.0
aF0.0
aF0.0
aF0.0
aF0.0
aF0.0
aF0.0
aF0.0
aF0.0
aF0.0
aF0.0
aF0.0
aF0.0
aF0.0
aF0.0
aF0.0
aF0.0
aF0.0
aF0.0
aF0.0
aF0.0
aF0.0
aF0.0
aF0.0
aF0.0
aF0.0
aF0.0
aF0.0
aF0.0
aF0.0
aF0.0
aF0.0
aF0.0
aF0.0
aF0.0
aF0.0
aF0.0
aF0.0
aF0.0
aF0.0
aF0.0
aF0.0
aF0.0
aF0.0
aF0.0
aF0.0
aF0.0
aF0.0
aF0.0
aF0.0
aF0.0
aF0.0
aF0.0
aF0.0
aF0.0
aF0.0
aF0.0
aF0.0
aF0.0
aF0.0
aF0.0
aF0.0
aF0.0
aF0.0
aF0.0
aF0.0
aF0.0
aF0.0
aF0.0
aF0.0
aF0.0
aF0.0
aF0.0
aF0.0
aF0.0
aF0.0
aF0.0
aF0.0
aF0.0
aF0.0
aF0.0
aF0.0
aF0.0
aF0.0
aF0.0
aF0.0
aF0.0
aF0.0
aF0.0
aF0.0
aF0.0
aF0.0
aF0.0
aF0.0
aF0.0
aF0.0
aF0.0
aF0.0
aF0.0
aF0.0
aF0.0
aF0.0
aF0.0
aF0.0
aF0.0
aF0.0
aF0.0
aF0.0
aF0.0
aF0.0
aF0.0
aF0.0
aF0.0
aF0.0
aF0.0
aF0.0
aF0.0
aF0.0
aF0.0
aF0.0
aF0.0
aF0.0
aF0.0
aF0.0
aF0.0
aF0.0
aF0.0
aF0.0
aF0.0
aF0.0
aF0.0
aF0.0
aF0.0
aF0.0
aF0.0
aF0.0
aF0.0
aF0.0
aF0.0
aF0.0
aF0.0
aF0.0
aF0.0
aF0.0
aF0.0
aF0.0
aF0.0
aF0.0
aF0.0
aF0.0
aF0.0
aF0.0
aF0.0
aF0.0
aF0.0
aF0.0
aF0.0
aF0.0
aF0.0
aF0.0
aF0.0
aF0.0
aF0.0
aF0.0
aF0.0
aF0.0
aF0.0
aF0.0
aF0.0
aF0.0
aF0.0
aF0.0
aF0.0
aF0.0
aF0.0
aF0.0
aF0.0
aF0.0
aF0.0
aF0.0
aF0.0
aF0.0
aF0.0
aF0.0
aF0.0
aF0.0
aF0.0
aF0.0
aF0.0
aF0.0
aF0.0
aF0.0
aF0.0
aF0.0
aF0.0
aF0.0
aF0.0
aF0.0
aF0.0
aF0.0
aF0.0
aF0.0
aF0.0
aF0.0
aF0.0
aF0.0
aF0.0
aF0.0
aF0.0
aF0.0
aF0.0
aF0.0
aF0.0
aF0.0
aF0.0
aF0.0
aF0.0
aF0.0
aF0.0
aF0.0
aF0.0
aF0.0
aF0.0
aF0.0
aF0.0
aF0.0
aF0.0
aF0.0
aF0.0
aF0.0
aF0.0
aF0.0
aF0.0
aF0.0
aF0.0
aF0.0
aF0.0
aF0.0
aF0.0
aF0.0
aF0.0
aF0.0
aF0.0
aF0.0
aF0.0
aF0.0
aF0.0
aF0.0
aF0.0
aF0.0
aF0.0
aF0.0
aF0.0
aF0.0
aF0.0
aF0.0
aF0.0
aF0.0
aF0.0
aF0.0
aF0.0
aF0.0
aF0.0
aF0.0
aF0.0
aF0.0
aF0.0
aF0.0
aF0.0
aF0.0
aF0.0
aF0.0
aF0.0
aF0.0
aF0.0
aF0.0
aF0.0
aF0.0
aF0.0
aF0.0
aF0.0
aF0.0
aF0.0
aF0.0
aF0.0
aF0.0
aF0.0
aF0.0
aF0.0
aF0.0
aF0.0
aF0.0
aF0.0
aF0.0
aF0.0
aF0.0
aF0.0
aF0.0
aF0.0
aF0.0
aF0.0
aF0.0
aF0.0
aF0.0
aF0.0
aF0.0
aF0.0
aF0.0
aF0.0
aF0.0
aF0.0
aF0.0
aF0.0
aF0.0
aF0.0
aF0.0
aF0.0
aF0.0
aF0.0
aF0.0
aF0.0
aF0.0
aF0.0
aF0.0
aF0.0
aF0.0
aF0.0
aF0.0
aF0.0
aF0.0
aF0.0
aF0.0
aF0.0
aF0.0
aF0.0
aF0.0
aF0.0
aF0.0
aF0.0
aF0.0
aF0.0
aF0.0
aF0.0
aF0.0
aF0.0
aF0.0
aF0.0
aa(lp3
F0.0
aF0.0
aF0.0
aF0.0
aF0.0
aF0.0
aF0.0
aF0.0
aF0.0
aF0.0
aF0.0
aF0.0
aF0.0
aF0.0
aF0.0
aF0.0
aF0.0
aF0.0
aF0.0
aF0.0
aF0.0
aF0.0
aF0.0
aF0.0
aF0.0
aF0.0
aF0.0
aF0.0
aF0.0
aF0.0
aF0.0
aF0.0
aF0.0
aF0.0
aF0.0
aF0.0
aF0.0
aF0.0
aF0.0
aF0.0
aF0.0
aF0.0
aF0.0
aF0.0
aF0.0
aF0.0
aF0.0
aF0.0
aF0.0
aF0.0
aF0.0
aF0.0
aF0.0
aF0.0
aF0.0
aF0.0
aF0.0
aF0.0
aF0.0
aF0.0
aF0.0
aF0.0
aF0.0
aF0.0
aF0.0
aF0.0
aF0.0
aF0.0
aF0.0
aF0.0
aF0.0
aF0.0
aF0.0
aF0.0
aF0.0
aF0.0
aF0.0
aF0.0
aF0.0
aF0.0
aF0.0
aF0.0
aF0.0
aF0.0
aF0.0
aF0.0
aF0.0
aF0.0
aF0.0
aF0.0
aF0.0
aF0.0
aF0.0
aF0.0
aF0.0
aF0.0
aF0.0
aF0.0
aF0.0
aF0.0
aF0.0
aF0.0
aF0.0
aF0.0
aF0.0
aF0.0
aF0.0
aF0.0
aF0.0
aF0.0
aF0.0
aF0.0
aF0.0
aF0.0
aF0.0
aF0.0
aF0.0
aF0.0
aF0.0
aF0.0
aF0.0
aF0.0
aF0.0
aF0.0
aF0.0
aF0.0
aF0.0
aF0.0
aF0.0
aF0.0
aF0.0
aF0.0
aF0.0
aF0.0
aF0.0
aF0.0
aF0.0
aF0.0
aF0.0
aF0.0
aF0.0
aF0.0
aF0.0
aF0.0
aF0.0
aF0.0
aF0.0
aF0.0
aF0.0
aF0.0
aF0.0
aF0.0
aF0.0
aF0.0
aF0.0
aF0.0
aF0.0
aF0.0
aF0.0
aF0.0
aF0.0
aF0.0
aF0.0
aF0.0
aF0.0
aF0.0
aF0.0
aF0.0
aF0.0
aF0.0
aF0.0
aF0.0
aF0.0
aF0.0
aF0.0
aF0.0
aF0.0
aF0.0
aF0.0
aF0.0
aF0.0
aF0.0
aF0.0
aF0.0
aF0.0
aF0.0
aF0.0
aF0.0
aF0.0
aF0.0
aF0.0
aF0.0
aF0.0
aF0.0
aF0.0
aF0.0
aF0.0
aF0.0
aF0.0
aF0.0
aF0.0
aF0.0
aF0.0
aF0.0
aF0.0
aF0.0
aF0.0
aF0.0
aF0.0
aF0.0
aF0.0
aF0.0
aF0.0
aF0.0
aF0.0
aF0.0
aF0.0
aF0.0
aF0.0
aF0.0
aF0.0
aF0.0
aF0.0
aF0.0
aF0.0
aF0.0
aF0.0
aF0.0
aF0.0
aF0.0
aF0.0
aF0.0
aF0.0
aF0.0
aF0.0
aF0.0
aF0.0
aF0.0
aF0.0
aF0.0
aF0.0
aF0.0
aF0.0
aF0.0
aF0.0
aF0.0
aF0.0
aF0.0
aF0.0
aF0.8353848630166067
aF0.0
aF0.0
aF0.0
aF0.0
aF0.0
aF0.0
aF0.0
aF0.0
aF0.0
aF0.0
aF0.0
aF0.0
aF0.0
aF0.0
aF0.0
aF0.0
aF0.0
aF0.0
aF0.0
aF0.0
aF0.0
aF0.0
aF0.0
aF0.0
aF0.0
aF0.0
aF0.0
aF0.0
aF0.0
aF0.0
aF0.0
aF0.0
aF0.0
aF0.0
aF0.0
aF0.0
aF0.0
aF0.0
aF0.0
aF0.0
aF0.0
aF0.0
aF0.0
aF0.0
aF0.0
aF0.0
aF0.0
aF0.0
aF0.0
aF0.0
aF0.0
aF0.0
aF0.0
aF0.0
aF0.0
aF0.0
aF0.0
aF0.0
aF0.0
aF0.0
aF0.0
aF0.0
aF0.0
aF0.0
aF0.0
aF0.0
aF0.0
aF0.0
aF0.0
aF0.0
aF0.0
aF0.0
aF0.0
aF0.0
aF0.0
aF0.0
aF0.0
aF0.0
aF0.0
aF0.0
aF0.0
aF0.0
aF0.0
aF0.0
aF0.0
aF0.0
aF0.0
aF0.0
aF0.0
aF0.0
aF0.0
aF0.0
aF0.0
aF0.0
aF0.0
aF0.0
aF0.0
aF0.0
aF0.0
aF0.0
aF0.0
aF0.0
aF0.0
aF0.0
aF0.0
aF0.0
aF0.0
aF0.0
aF0.0
aF0.0
aF0.0
aF0.0
aF0.0
aF0.0
aF0.0
aF0.0
aF0.0
aF0.0
aF0.0
aF0.0
aF0.0
aF0.0
aF0.0
aF0.0
aF0.0
aF0.0
aF0.0
aF0.0
aF0.0
aF0.0
aF0.0
aF0.0
aF0.0
aF0.0
aF0.0
aF0.0
aF0.0
aF0.0
aF0.0
aF0.0
aF0.0
aF0.0
aF0.0
aF0.0
aF0.0
aF0.0
aF0.0
aF0.0
aF0.0
aF0.0
aF0.0
aF0.0
aF0.0
aF0.0
aF0.0
aF0.0
aF0.0
aF0.0
aF0.0
aF0.0
aF0.0
aF0.0
aF0.0
aF0.0
aF0.0
aF0.0
aF0.0
aF0.0
aF0.0
aF0.0
aF0.0
aF0.0
aF0.0
aF0.0
aF0.0
aF0.0
aF0.0
aF0.0
aF0.0
aF0.0
aF0.0
aF0.0
aF0.0
aF0.0
aF0.0
aF0.0
aF0.0
aF0.0
aF0.0
aF0.0
aF0.0
aF0.0
aF0.0
aF0.0
aF0.0
aF0.0
aF0.0
aF0.0
aF0.0
aF0.0
aF0.0
aF0.0
aF0.0
aF0.0
aF0.0
aF0.0
aF0.0
aF0.0
aF0.0
aF0.0
aF0.0
aF0.0
aF0.0
aF0.0
aF0.0
aF0.0
aF0.0
aF0.0
aF0.0
aF0.0
aF0.0
aF0.0
aF0.0
aF0.0
aF0.0
aF0.0
aF0.0
aF0.0
aF0.0
aF0.0
aF0.0
aF0.0
aF0.0
aF0.0
aF0.0
aF0.0
aF0.0
aF0.0
aF0.0
aF0.0
aF0.0
aF0.0
aF0.0
aF0.0
aF0.0
aF0.0
aF0.0
aF0.0
aF0.0
aF0.0
aF0.0
aF0.0
aF0.0
aF0.0
aF0.0
aF0.0
aF0.0
aF0.0
aF0.0
aF0.0
aF0.0
aF0.0
aF0.0
aF0.0
aF0.0
aF0.0
aF0.0
aF0.0
aF0.0
aF0.0
aF0.0
aF0.0
aF0.0
aF0.0
aF0.0
aF0.0
aF0.0
aF0.0
aF0.0
aF0.0
aF0.0
aF0.0
aF0.0
aF0.0
aF0.0
aF0.0
aF0.0
aF0.0
aF0.0
aF0.0
aF0.0
aF0.0
aF0.0
aF0.0
aF0.0
aF0.0
aF0.0
aF0.0
aF0.0
aF0.0
aF0.0
aF0.0
aF0.0
aF0.0
aF0.0
aF0.0
aF0.0
aF0.0
aF0.0
aF0.0
aF0.0
aF0.0
aF0.0
aF0.0
aF0.0
aF0.0
aF0.0
aF0.0
aF0.0
aF0.0
aF0.0
aF0.0
aF0.0
aF0.0
aF0.0
aF0.0
aF0.0
aF0.0
aF0.0
aF0.0
aF0.0
aF0.0
aF0.0
aF0.0
aF0.0
aF0.0
aF0.0
aF0.0
aF0.0
aF0.0
aF0.0
aF0.0
aF0.0
aF0.0
aF0.0
aF0.0
aF0.0
aF0.0
aF0.0
aF0.0
aF0.0
aF0.0
aF0.0
aF0.0
aF0.0
aF0.0
aF0.0
aF0.0
aF0.0
aF0.0
aF0.0
aF0.0
aF0.0
aF0.0
aF0.0
aF0.0
aF0.0
aF0.0
aF0.0
aF0.0
aF0.0
aF0.0
aF0.0
aF0.0
aF0.0
aF0.0
aF0.0
aF0.0
aF0.0
aF0.0
aF0.0
aF0.0
aF0.0
aF0.0
aF0.0
aF0.0
aF0.0
aF0.0
aF0.0
aF0.0
aaa(lp4
(lp5
F2.2701809899493965e-05
aF2.2701809899493965e-05
aF2.2701809899493965e-05
aF2.2701809899493965e-05
aF2.2701809899493965e-05
aF2.2701809899493965e-05
aF2.2701809899493965e-05
aF2.2701809899493965e-05
aF2.2701809899493965e-05
aF2.2701809899493965e-05
aF2.2701809899493965e-05
aF2.2701809899493965e-05
aF2.2701809899493965e-05
aF2.2701809899493965e-05
aF2.2701809899493965e-05
aF2.2701809899493965e-05
aF2.2701809899493965e-05
aF2.2701809899493965e-05
aF2.2701809899493965e-05
aF2.2701809899493965e-05
aF2.2701809899493965e-05
aF2.2701809899493965e-05
aF2.2701809899493965e-05
aF2.2701809899493965e-05
aF2.2701809899493965e-05
aF2.2701809899493965e-05
aF2.2701809899493965e-05
aF2.2701809899493965e-05
aF2.2701809899493965e-05
aF2.2701809899493965e-05
aF2.2701809899493965e-05
aF2.2701809899493965e-05
aF2.2701809899493965e-05
aF2.2701809899493965e-05
aF2.2701809899493965e-05
aF2.2701809899493965e-05
aF2.2701809899493965e-05
aF2.2701809899493965e-05
aF2.2701809899493965e-05
aF2.2701809899493965e-05
aF2.2701809899493965e-05
aF2.2701809899493965e-05
aF2.2701809899493965e-05
aF2.2701809899493965e-05
aF2.2701809899493965e-05
aF2.2701809899493965e-05
aF2.2701809899493965e-05
aF2.2701809899493965e-05
aF2.2701809899493965e-05
aF2.2701809899493965e-05
aF2.2701809899493965e-05
aF2.2701809899493965e-05
aF2.2701809899493965e-05
aF2.2701809899493965e-05
aF2.2701809899493965e-05
aF2.2701809899493965e-05
aF2.2701809899493965e-05
aF2.2701809899493965e-05
aF2.2701809899493965e-05
aF2.2701809899493965e-05
aF2.2701809899493965e-05
aF2.2701809899493965e-05
aF2.2701809899493965e-05
aF2.2701809899493965e-05
aF2.2701809899493965e-05
aF2.2701809899493965e-05
aF2.2701809899493965e-05
aF2.2701809899493965e-05
aF2.2701809899493965e-05
aF2.2701809899493965e-05
aF2.2701809899493965e-05
aF2.2701809899493965e-05
aF2.2701809899493965e-05
aF2.2701809899493965e-05
aF2.2701809899493965e-05
aF2.2701809899493965e-05
aF2.2701809899493965e-05
aF2.2701809899493965e-05
aF2.2701809899493965e-05
aF2.2701809899493965e-05
aF2.2701809899493965e-05
aF2.2701809899493965e-05
aF2.2701809899493965e-05
aF2.2701809899493965e-05
aF2.2701809899493965e-05
aF2.2701809899493965e-05
aF2.2701809899493965e-05
aF2.2701809899493965e-05
aF2.2701809899493965e-05
aF2.2701809899493965e-05
aF2.2701809899493965e-05
aF2.2701809899493965e-05
aF2.2701809899493965e-05
aF2.2701809899493965e-05
aF2.2701809899493965e-05
aF2.2701809899493965e-05
aF2.2701809899493965e-05
aF2.2701809899493965e-05
aF2.2701809899493965e-05
aF2.2701809899493965e-05
aF2.2701809899493965e-05
aF2.2701809899493965e-05
aF2.2701809899493965e-05
aF2.2701809899493965e-05
aF2.2701809899493965e-05
aF2.2701809899493965e-05
aF2.2701809899493965e-05
aF2.2701809899493965e-05
aF2.2701809899493965e-05
aF2.2701809899493965e-05
aF2.2701809899493965e-05
aF2.2701809899493965e-05
aF2.2701809899493965e-05
aF2.2701809899493965e-05
aF2.2701809899493965e-05
aF2.2701809899493965e-05
aF2.2701809899493965e-05
aF2.2701809899493965e-05
aF2.2701809899493965e-05
aF2.2701809899493965e-05
aF2.2701809899493965e-05
aF2.2701809899493965e-05
aF2.2701809899493965e-05
aF2.2701809899493965e-05
aF2.2701809899493965e-05
aF2.2701809899493965e-05
aF2.2701809899493965e-05
aF2.2701809899493965e-05
aF2.2701809899493965e-05
aF2.2701809899493965e-05
aF2.2701809899493965e-05
aF2.2701809899493965e-05
aF2.2701809899493965e-05
aF2.2701809899493965e-05
aF2.2701809899493965e-05
aF2.2701809899493965e-05
aF2.2701809899493965e-05
aF2.2701809899493965e-05
aF2.2701809899493965e-05
aF2.2701809899493965e-05
aF2.2701809899493965e-05
aF2.2701809899493965e-05
aF2.2701809899493965e-05
aF2.2701809899493965e-05
aF2.2701809899493965e-05
aF2.2701809899493965e-05
aF2.2701809899493965e-05
aF2.2701809899493965e-05
aF2.2701809899493965e-05
aF2.2701809899493965e-05
aF2.2701809899493965e-05
aF2.2701809899493965e-05
aF2.2701809899493965e-05
aF2.2701809899493965e-05
aF2.2701809899493965e-05
aF2.2701809899493965e-05
aF2.2701809899493965e-05
aF2.2701809899493965e-05
aF2.2701809899493965e-05
aF2.2701809899493965e-05
aF2.2701809899493965e-05
aF2.2701809899493965e-05
aF2.2701809899493965e-05
aF2.2701809899493965e-05
aF2.2701809899493965e-05
aF2.2701809899493965e-05
aF2.2701809899493965e-05
aF2.2701809899493965e-05
aF2.2701809899493965e-05
aF2.2701809899493965e-05
aF2.2701809899493965e-05
aF2.2701809899493965e-05
aF2.2701809899493965e-05
aF2.2701809899493965e-05
aF2.2701809899493965e-05
aF2.2701809899493965e-05
aF2.2701809899493965e-05
aF2.2701809899493965e-05
aF2.2701809899493965e-05
aF2.2701809899493965e-05
aF2.2701809899493965e-05
aF2.2701809899493965e-05
aF2.2701809899493965e-05
aF2.2701809899493965e-05
aF2.2701809899493965e-05
aF2.2701809899493965e-05
aF2.2701809899493965e-05
aF2.2701809899493965e-05
aF2.2701809899493965e-05
aF2.2701809899493965e-05
aF2.2701809899493965e-05
aF2.2701809899493965e-05
aF2.2701809899493965e-05
aF2.2701809899493965e-05
aF2.2701809899493965e-05
aF2.2701809899493965e-05
aF2.2701809899493965e-05
aF2.2701809899493965e-05
aF2.2701809899493965e-05
aF2.2701809899493965e-05
aF2.2701809899493965e-05
aF2.2701809899493965e-05
aF2.2701809899493965e-05
aF2.2701809899493965e-05
aF2.2701809899493965e-05
aF2.2701809899493965e-05
aF2.2701809899493965e-05
aF2.2701809899493965e-05
aF2.2701809899493965e-05
aF2.2701809899493965e-05
aF2.2701809899493965e-05
aF2.2701809899493965e-05
aF2.2701809899493965e-05
aF2.2701809899493965e-05
aF2.2701809899493965e-05
aF2.2701809899493965e-05
aF2.2701809899493965e-05
aF2.2701809899493965e-05
aF2.2701809899493965e-05
aF2.2701809899493965e-05
aF2.2701809899493965e-05
aF2.2701809899493965e-05
aF2.2701809899493965e-05
aF2.2701809899493965e-05
aF2.2701809899493965e-05
aF2.2701809899493965e-05
aF2.2701809899493965e-05
aF2.2701809899493965e-05
aF2.2701809899493965e-05
aF2.2701809899493965e-05
aF2.2701809899493965e-05
aF2.2701809899493965e-05
aF2.2701809899493965e-05
aF2.2701809899493965e-05
aF2.2701809899493965e-05
aF2.2701809899493965e-05
aF2.2701809899493965e-05
aF2.2701809899493965e-05
aF2.2701809899493965e-05
aF2.2701809899493965e-05
aF2.2701809899493965e-05
aF2.2701809899493965e-05
aF2.2701809899493965e-05
aF2.2701809899493965e-05
aF2.2701809899493965e-05
aF2.2701809899493965e-05
aF2.2701809899493965e-05
aF2.2701809899493965e-05
aF2.2701809899493965e-05
aF2.2701809899493965e-05
aF2.2701809899493965e-05
aF2.2701809899493965e-05
aF2.2701809899493965e-05
aF2.2701809899493965e-05
aF2.2701809899493965e-05
aF2.2701809899493965e-05
aF2.2701809899493965e-05
aF2.2701809899493965e-05
aF2.2701809899493965e-05
aF2.2701809899493965e-05
aF2.2701809899493965e-05
aF2.2701809899493965e-05
aF2.2701809899493965e-05
aF2.2701809899493965e-05
aF2.2701809899493965e-05
aF2.2701809899493965e-05
aF2.2701809899493965e-05
aF2.2701809899493965e-05
aF2.2701809899493965e-05
aF2.2701809899493965e-05
aF2.2701809899493965e-05
aF2.2701809899493965e-05
aF2.2701809899493965e-05
aF2.2701809899493965e-05
aF2.2701809899493965e-05
aF2.2701809899493965e-05
aF2.2701809899493965e-05
aF2.2701809899493965e-05
aF2.2701809899493965e-05
aF2.2701809899493965e-05
aF2.2701809899493965e-05
aF2.2701809899493965e-05
aF2.2701809899493965e-05
aF2.2701809899493965e-05
aF2.2701809899493965e-05
aF2.2701809899493965e-05
aF2.2701809899493965e-05
aF2.2701809899493965e-05
aF2.2701809899493965e-05
aF2.2701809899493965e-05
aF2.2701809899493965e-05
aF2.2701809899493965e-05
aF2.2701809899493965e-05
aF2.2701809899493965e-05
aF2.2701809899493965e-05
aF2.2701809899493965e-05
aF2.2701809899493965e-05
aF2.2701809899493965e-05
aF2.2701809899493965e-05
aF2.2701809899493965e-05
aF2.2701809899493965e-05
aF2.2701809899493965e-05
aF2.2701809899493965e-05
aF2.2701809899493965e-05
aF2.2701809899493965e-05
aF2.2701809899493965e-05
aF2.2701809899493965e-05
aF2.2701809899493965e-05
aF2.2701809899493965e-05
aF2.2701809899493965e-05
aF2.2701809899493965e-05
aF2.2701809899493965e-05
aF2.2701809899493965e-05
aF2.2701809899493965e-05
aF2.2701809899493965e-05
aF2.2701809899493965e-05
aF2.2701809899493965e-05
aF2.2701809899493965e-05
aF2.2701809899493965e-05
aF2.2701809899493965e-05
aF2.2701809899493965e-05
aF2.2701809899493965e-05
aF2.2701809899493965e-05
aF2.2701809899493965e-05
aF2.2701809899493965e-05
aF2.2701809899493965e-05
aF2.2701809899493965e-05
aF2.2701809899493965e-05
aF2.2701809899493965e-05
aF2.2701809899493965e-05
aF2.2701809899493965e-05
aF2.2701809899493965e-05
aF2.2701809899493965e-05
aF2.2701809899493965e-05
aF2.2701809899493965e-05
aF2.2701809899493965e-05
aF2.2701809899493965e-05
aF2.2701809899493965e-05
aF2.2701809899493965e-05
aF2.2701809899493965e-05
aF2.2701809899493965e-05
aF2.2701809899493965e-05
aF2.2701809899493965e-05
aF2.2701809899493965e-05
aF2.2701809899493965e-05
aF2.2701809899493965e-05
aF2.2701809899493965e-05
aF2.2701809899493965e-05
aF2.2701809899493965e-05
aF2.2701809899493965e-05
aF2.2701809899493965e-05
aF2.2701809899493965e-05
aF2.2701809899493965e-05
aF2.2701809899493965e-05
aF2.2701809899493965e-05
aF2.2701809899493965e-05
aF2.2701809899493965e-05
aF2.2701809899493965e-05
aF2.2701809899493965e-05
aF2.2701809899493965e-05
aF2.2701809899493965e-05
aF2.2701809899493965e-05
aF2.2701809899493965e-05
aF2.2701809899493965e-05
aF2.2701809899493965e-05
aF2.2701809899493965e-05
aF2.2701809899493965e-05
aF2.2701809899493965e-05
aF2.2701809899493965e-05
aF2.2701809899493965e-05
aF2.2701809899493965e-05
aF2.2701809899493965e-05
aF2.2701809899493965e-05
aF2.2701809899493965e-05
aF2.2701809899493965e-05
aF2.2701809899493965e-05
aF2.2701809899493965e-05
aF2.2701809899493965e-05
aF2.2701809899493965e-05
aF2.2701809899493965e-05
aF2.2701809899493965e-05
aF2.2701809899493965e-05
aF2.2701809899493965e-05
aF2.2701809899493965e-05
aF2.2701809899493965e-05
aF2.2701809899493965e-05
aF2.2701809899493965e-05
aF2.2701809899493965e-05
aF2.2701809899493965e-05
aF2.2701809899493965e-05
aF2.2701809899493965e-05
aF2.2701809899493965e-05
aF2.2701809899493965e-05
aF2.2701809899493965e-05
aF2.2701809899493965e-05
aF2.2701809899493965e-05
aF2.2701809899493965e-05
aF2.2701809899493965e-05
aF2.2701809899493965e-05
aF2.2701809899493965e-05
aF2.2701809899493965e-05
aF2.2701809899493965e-05
aF2.2701809899493965e-05
aF2.2701809899493965e-05
aF2.2701809899493965e-05
aF2.2701809899493965e-05
aF2.2701809899493965e-05
aF2.2701809899493965e-05
aF2.2701809899493965e-05
aF2.2701809899493965e-05
aF2.2701809899493965e-05
aF2.2701809899493965e-05
aF2.2701809899493965e-05
aF2.2701809899493965e-05
aF2.2701809899493965e-05
aF2.2701809899493965e-05
aF2.2701809899493965e-05
aF2.2701809899493965e-05
aF2.2701809899493965e-05
aF2.2701809899493965e-05
aF2.2701809899493965e-05
aF2.2701809899493965e-05
aF2.2701809899493965e-05
aF2.2701809899493965e-05
aF2.2701809899493965e-05
aF2.2701809899493965e-05
aF2.2701809899493965e-05
aF2.2701809899493965e-05
aF2.2701809899493965e-05
aF2.2701809899493965e-05
aF2.2701809899493965e-05
aF2.2701809899493965e-05
aF2.2701809899493965e-05
aF2.2701809899493965e-05
aF2.2701809899493965e-05
aF2.2701809899493965e-05
aF2.2701809899493965e-05
aF2.2701809899493965e-05
aF2.2701809899493965e-05
aF2.2701809899493965e-05
aF2.2701809899493965e-05
aF2.2701809899493965e-05
aF2.2701809899493965e-05
aF2.2701809899493965e-05
aF2.2701809899493965e-05
aF2.2701809899493965e-05
aF2.2701809899493965e-05
aF2.2701809899493965e-05
aF2.2701809899493965e-05
aF2.2701809899493965e-05
aF2.2701809899493965e-05
aF2.2701809899493965e-05
aF2.2701809899493965e-05
aF2.2701809899493965e-05
aF2.2701809899493965e-05
aF2.2701809899493965e-05
aF2.2701809899493965e-05
aF2.2701809899493965e-05
aF2.2701809899493965e-05
aF2.2701809899493965e-05
aF2.2701809899493965e-05
aF2.2701809899493965e-05
aF2.2701809899493965e-05
aF2.2701809899493965e-05
aF2.2701809899493965e-05
aF2.2701809899493965e-05
aF2.2701809899493965e-05
aF2.2701809899493965e-05
aF2.2701809899493965e-05
aF2.2701809899493965e-05
aF2.2701809899493965e-05
aF2.2701809899493965e-05
aF2.2701809899493965e-05
aF2.2701809899493965e-05
aF2.2701809899493965e-05
aF2.2701809899493965e-05
aF2.2701809899493965e-05
aF2.2701809899493965e-05
aF2.2701809899493965e-05
aF2.2701809899493965e-05
aF2.2701809899493965e-05
aF2.2701809899493965e-05
aF2.2701809899493965e-05
aF2.2701809899493965e-05
aF2.2701809899493965e-05
aF2.2701809899493965e-05
aF2.2701809899493965e-05
aF2.2701809899493965e-05
aF2.2701809899493965e-05
aF2.2701809899493965e-05
aF2.2701809899493965e-05
aF2.2701809899493965e-05
aF2.2701809899493965e-05
aF2.2701809899493965e-05
aF2.2701809899493965e-05
aF2.2701809899493965e-05
aF2.2701809899493965e-05
aF2.2701809899493965e-05
aF2.2701809899493965e-05
aF2.2701809899493965e-05
aF2.2701809899493965e-05
aF2.2701809899493965e-05
aF2.2701809899493965e-05
aF2.2701809899493965e-05
aF2.2701809899493965e-05
aF2.2701809899493965e-05
aF2.2701809899493965e-05
aF2.2701809899493965e-05
aF2.2701809899493965e-05
aF2.2701809899493965e-05
aF2.2701809899493965e-05
aF2.2701809899493965e-05
aF2.2701809899493965e-05
aF2.2701809899493965e-05
aF2.2701809899493965e-05
aF2.2701809899493965e-05
aF2.2701809899493965e-05
aF2.2701809899493965e-05
aF2.2701809899493965e-05
aF2.2701809899493965e-05
aF2.2701809899493965e-05
aF2.2701809899493965e-05
aF2.2701809899493965e-05
aF2.2701809899493965e-05
aF2.2701809899493965e-05
aF2.2701809899493965e-05
aF2.2701809899493965e-05
aF2.2701809899493965e-05
aF2.2701809899493965e-05
aF2.2701809899493965e-05
aF2.2701809899493965e-05
aF2.2701809899493965e-05
aF2.2701809899493965e-05
aF2.2701809899493965e-05
aF2.2701809899493965e-05
aF2.2701809899493965e-05
aF2.2701809899493965e-05
aF2.2701809899493965e-05
aF2.2701809899493965e-05
aF2.2701809899493965e-05
aF2.2701809899493965e-05
aF2.2701809899493965e-05
aF2.2701809899493965e-05
aF2.2701809899493965e-05
aF2.2701809899493965e-05
aF2.2701809899493965e-05
aF2.2701809899493965e-05
aF2.2701809899493965e-05
aF2.2701809899493965e-05
aF2.2701809899493965e-05
aF2.2701809899493965e-05
aF2.2701809899493965e-05
aF2.2701809899493965e-05
aF2.2701809899493965e-05
aF2.2701809899493965e-05
aF2.2701809899493965e-05
aF2.2701809899493965e-05
aF2.2701809899493965e-05
aF2.2701809899493965e-05
aF2.2701809899493965e-05
aF2.2701809899493965e-05
aF2.2701809899493965e-05
aF2.2701809899493965e-05
aF2.2701809899493965e-05
aF2.2701809899493965e-05
aF2.2701809899493965e-05
aF2.2701809899493965e-05
aF2.2701809899493965e-05
aF2.2701809899493965e-05
aF2.2701809899493965e-05
aF2.2701809899493965e-05
aF2.2701809899493965e-05
aF2.2701809899493965e-05
aF2.2701809899493965e-05
aF2.2701809899493965e-05
aF2.2701809899493965e-05
aF2.2701809899493965e-05
aF2.2701809899493965e-05
aF2.2701809899493965e-05
aF2.2701809899493965e-05
aF2.2701809899493965e-05
aF2.2701809899493965e-05
aF2.2701809899493965e-05
aF2.2701809899493965e-05
aF2.2701809899493965e-05
aF2.2701809899493965e-05
aF2.2701809899493965e-05
aF2.2701809899493965e-05
aF2.2701809899493965e-05
aF2.2701809899493965e-05
aF2.2701809899493965e-05
aF2.2701809899493965e-05
aF2.2701809899493965e-05
aF2.2701809899493965e-05
aF2.2701809899493965e-05
aF2.2701809899493965e-05
aF2.2701809899493965e-05
aF2.2701809899493965e-05
aF2.2701809899493965e-05
aF2.2701809899493965e-05
aF2.2701809899493965e-05
aF2.2701809899493965e-05
aF2.2701809899493965e-05
aF2.2701809899493965e-05
aF2.2701809899493965e-05
aF2.2701809899493965e-05
aF2.2701809899493965e-05
aF2.2701809899493965e-05
aF2.2701809899493965e-05
aF2.2701809899493965e-05
aF2.2701809899493965e-05
aF2.2701809899493965e-05
aF2.2701809899493965e-05
aF2.2701809899493965e-05
aF2.2701809899493965e-05
aF2.2701809899493965e-05
aF2.2701809899493965e-05
aF2.2701809899493965e-05
aF2.2701809899493965e-05
aF2.2701809899493965e-05
aF2.2701809899493965e-05
aF2.2701809899493965e-05
aF2.2701809899493965e-05
aF2.2701809899493965e-05
aF2.2701809899493965e-05
aF2.2701809899493965e-05
aF2.2701809899493965e-05
aF2.2701809899493965e-05
aF2.2701809899493965e-05
aF2.2701809899493965e-05
aF2.2701809899493965e-05
aF2.2701809899493965e-05
aF2.2701809899493965e-05
aF2.2701809899493965e-05
aF2.2701809899493965e-05
aF2.2701809899493965e-05
aF2.2701809899493965e-05
aF2.2701809899493965e-05
aF2.2701809899493965e-05
aF2.2701809899493965e-05
aa(lp6
F2.2701809899493965e-05
aF2.2701809899493965e-05
aF2.2701809899493965e-05
aF2.2701809899493965e-05
aF2.2701809899493965e-05
aF2.2701809899493965e-05
aF2.2701809899493965e-05
aF2.2701809899493965e-05
aF2.2701809899493965e-05
aF2.2701809899493965e-05
aF2.2701809899493965e-05
aF2.2701809899493965e-05
aF2.2701809899493965e-05
aF2.2701809899493965e-05
aF2.2701809899493965e-05
aF2.2701809899493965e-05
aF2.2701809899493965e-05
aF2.2701809899493965e-05
aF2.2701809899493965e-05
aF2.2701809899493965e-05
aF2.2701809899493965e-05
aF2.2701809899493965e-05
aF2.2701809899493965e-05
aF2.2701809899493965e-05
aF2.2701809899493965e-05
aF2.2701809899493965e-05
aF2.2701809899493965e-05
aF2.2701809899493965e-05
aF2.2701809899493965e-05
aF2.2701809899493965e-05
aF2.2701809899493965e-05
aF2.2701809899493965e-05
aF2.2701809899493965e-05
aF2.2701809899493965e-05
aF2.2701809899493965e-05
aF2.2701809899493965e-05
aF2.2701809899493965e-05
aF2.2701809899493965e-05
aF2.2701809899493965e-05
aF2.2701809899493965e-05
aF2.2701809899493965e-05
aF2.2701809899493965e-05
aF2.2701809899493965e-05
aF2.2701809899493965e-05
aF2.2701809899493965e-05
aF2.2701809899493965e-05
aF2.2701809899493965e-05
aF2.2701809899493965e-05
aF2.2701809899493965e-05
aF2.2701809899493965e-05
aF2.2701809899493965e-05
aF2.2701809899493965e-05
aF2.2701809899493965e-05
aF2.2701809899493965e-05
aF2.2701809899493965e-05
aF2.2701809899493965e-05
aF2.2701809899493965e-05
aF2.2701809899493965e-05
aF2.2701809899493965e-05
aF2.2701809899493965e-05
aF2.2701809899493965e-05
aF2.2701809899493965e-05
aF2.2701809899493965e-05
aF2.2701809899493965e-05
aF2.2701809899493965e-05
aF2.2701809899493965e-05
aF2.2701809899493965e-05
aF2.2701809899493965e-05
aF2.2701809899493965e-05
aF2.2701809899493965e-05
aF2.2701809899493965e-05
aF2.2701809899493965e-05
aF2.2701809899493965e-05
aF2.2701809899493965e-05
aF2.2701809899493965e-05
aF2.2701809899493965e-05
aF2.2701809899493965e-05
aF2.2701809899493965e-05
aF2.2701809899493965e-05
aF2.2701809899493965e-05
aF2.2701809899493965e-05
aF2.2701809899493965e-05
aF2.2701809899493965e-05
aF2.2701809899493965e-05
aF2.2701809899493965e-05
aF2.2701809899493965e-05
aF2.2701809899493965e-05
aF2.2701809899493965e-05
aF2.2701809899493965e-05
aF2.2701809899493965e-05
aF2.2701809899493965e-05
aF2.2701809899493965e-05
aF2.2701809899493965e-05
aF2.2701809899493965e-05
aF2.2701809899493965e-05
aF2.2701809899493965e-05
aF2.2701809899493965e-05
aF2.2701809899493965e-05
aF2.2701809899493965e-05
aF2.2701809899493965e-05
aF2.2701809899493965e-05
aF2.2701809899493965e-05
aF2.2701809899493965e-05
aF2.2701809899493965e-05
aF2.2701809899493965e-05
aF2.2701809899493965e-05
aF2.2701809899493965e-05
aF2.2701809899493965e-05
aF2.2701809899493965e-05
aF2.2701809899493965e-05
aF2.2701809899493965e-05
aF2.2701809899493965e-05
aF2.2701809899493965e-05
aF2.2701809899493965e-05
aF2.2701809899493965e-05
aF2.2701809899493965e-05
aF2.2701809899493965e-05
aF2.2701809899493965e-05
aF2.2701809899493965e-05
aF2.2701809899493965e-05
aF2.2701809899493965e-05
aF2.2701809899493965e-05
aF2.2701809899493965e-05
aF2.2701809899493965e-05
aF2.2701809899493965e-05
aF2.2701809899493965e-05
aF2.2701809899493965e-05
aF2.2701809899493965e-05
aF2.2701809899493965e-05
aF2.2701809899493965e-05
aF2.2701809899493965e-05
aF2.2701809899493965e-05
aF2.2701809899493965e-05
aF2.2701809899493965e-05
aF2.2701809899493965e-05
aF2.2701809899493965e-05
aF2.2701809899493965e-05
aF2.2701809899493965e-05
aF2.2701809899493965e-05
aF2.2701809899493965e-05
aF2.2701809899493965e-05
aF2.2701809899493965e-05
aF2.2701809899493965e-05
aF2.2701809899493965e-05
aF2.2701809899493965e-05
aF2.2701809899493965e-05
aF2.2701809899493965e-05
aF2.2701809899493965e-05
aF2.2701809899493965e-05
aF2.2701809899493965e-05
aF2.2701809899493965e-05
aF2.2701809899493965e-05
aF2.2701809899493965e-05
aF2.2701809899493965e-05
aF2.2701809899493965e-05
aF2.2701809899493965e-05
aF2.2701809899493965e-05
aF2.2701809899493965e-05
aF2.2701809899493965e-05
aF2.2701809899493965e-05
aF2.2701809899493965e-05
aF2.2701809899493965e-05
aF2.2701809899493965e-05
aF2.2701809899493965e-05
aF2.2701809899493965e-05
aF2.2701809899493965e-05
aF2.2701809899493965e-05
aF2.2701809899493965e-05
aF2.2701809899493965e-05
aF2.2701809899493965e-05
aF2.2701809899493965e-05
aF2.2701809899493965e-05
aF2.2701809899493965e-05
aF2.2701809899493965e-05
aF2.2701809899493965e-05
aF2.2701809899493965e-05
aF2.2701809899493965e-05
aF2.2701809899493965e-05
aF2.2701809899493965e-05
aF2.2701809899493965e-05
aF2.2701809899493965e-05
aF2.2701809899493965e-05
aF2.2701809899493965e-05
aF2.2701809899493965e-05
aF2.2701809899493965e-05
aF2.2701809899493965e-05
aF2.2701809899493965e-05
aF2.2701809899493965e-05
aF2.2701809899493965e-05
aF2.2701809899493965e-05
aF2.2701809899493965e-05
aF2.2701809899493965e-05
aF2.2701809899493965e-05
aF2.2701809899493965e-05
aF2.2701809899493965e-05
aF2.2701809899493965e-05
aF2.2701809899493965e-05
aF2.2701809899493965e-05
aF2.2701809899493965e-05
aF2.2701809899493965e-05
aF2.2701809899493965e-05
aF2.2701809899493965e-05
aF2.2701809899493965e-05
aF2.2701809899493965e-05
aF2.2701809899493965e-05
aF2.2701809899493965e-05
aF2.2701809899493965e-05
aF2.2701809899493965e-05
aF2.2701809899493965e-05
aF2.2701809899493965e-05
aF2.2701809899493965e-05
aF2.2701809899493965e-05
aF2.2701809899493965e-05
aF2.2701809899493965e-05
aF2.2701809899493965e-05
aF2.2701809899493965e-05
aF2.2701809899493965e-05
aF2.2701809899493965e-05
aF2.2701809899493965e-05
aF2.2701809899493965e-05
aF2.2701809899493965e-05
aF2.2701809899493965e-05
aF2.2701809899493965e-05
aF2.2701809899493965e-05
aF2.2701809899493965e-05
aF2.2701809899493965e-05
aF2.2701809899493965e-05
aF2.2701809899493965e-05
aF2.2701809899493965e-05
aF2.2701809899493965e-05
aF2.2701809899493965e-05
aF2.2701809899493965e-05
aF2.2701809899493965e-05
aF2.2701809899493965e-05
aF2.2701809899493965e-05
aF2.2701809899493965e-05
aF2.2701809899493965e-05
aF2.2701809899493965e-05
aF2.2701809899493965e-05
aF2.2701809899493965e-05
aF2.2701809899493965e-05
aF2.2701809899493965e-05
aF2.2701809899493965e-05
aF2.2701809899493965e-05
aF2.2701809899493965e-05
aF2.2701809899493965e-05
aF2.2701809899493965e-05
aF2.2701809899493965e-05
aF2.2701809899493965e-05
aF2.2701809899493965e-05
aF2.2701809899493965e-05
aF2.2701809899493965e-05
aF2.2701809899493965e-05
aF2.2701809899493965e-05
aF2.2701809899493965e-05
aF2.2701809899493965e-05
aF2.2701809899493965e-05
aF2.2701809899493965e-05
aF2.2701809899493965e-05
aF2.2701809899493965e-05
aF2.2701809899493965e-05
aF2.2701809899493965e-05
aF2.2701809899493965e-05
aF2.2701809899493965e-05
aF2.2701809899493965e-05
aF2.2701809899493965e-05
aF2.2701809899493965e-05
aF2.2701809899493965e-05
aF2.2701809899493965e-05
aF2.2701809899493965e-05
aF2.2701809899493965e-05
aF2.2701809899493965e-05
aF2.2701809899493965e-05
aF2.2701809899493965e-05
aF2.2701809899493965e-05
aF2.2701809899493965e-05
aF2.2701809899493965e-05
aF2.2701809899493965e-05
aF2.2701809899493965e-05
aF2.2701809899493965e-05
aF2.2701809899493965e-05
aF2.2701809899493965e-05
aF2.2701809899493965e-05
aF2.2701809899493965e-05
aF2.2701809899493965e-05
aF2.2701809899493965e-05
aF2.2701809899493965e-05
aF2.2701809899493965e-05
aF2.2701809899493965e-05
aF2.2701809899493965e-05
aF2.2701809899493965e-05
aF2.2701809899493965e-05
aF2.2701809899493965e-05
aF2.2701809899493965e-05
aF2.2701809899493965e-05
aF2.2701809899493965e-05
aF2.2701809899493965e-05
aF2.2701809899493965e-05
aF2.2701809899493965e-05
aF2.2701809899493965e-05
aF2.2701809899493965e-05
aF2.2701809899493965e-05
aF2.2701809899493965e-05
aF2.2701809899493965e-05
aF2.2701809899493965e-05
aF2.2701809899493965e-05
aF2.2701809899493965e-05
aF2.2701809899493965e-05
aF2.2701809899493965e-05
aF2.2701809899493965e-05
aF2.2701809899493965e-05
aF2.2701809899493965e-05
aF2.2701809899493965e-05
aF2.2701809899493965e-05
aF2.2701809899493965e-05
aF2.2701809899493965e-05
aF2.2701809899493965e-05
aF2.2701809899493965e-05
aF2.2701809899493965e-05
aF2.2701809899493965e-05
aF2.2701809899493965e-05
aF2.2701809899493965e-05
aF2.2701809899493965e-05
aF2.2701809899493965e-05
aF2.2701809899493965e-05
aF2.2701809899493965e-05
aF2.2701809899493965e-05
aF2.2701809899493965e-05
aF2.2701809899493965e-05
aF2.2701809899493965e-05
aF2.2701809899493965e-05
aF2.2701809899493965e-05
aF2.2701809899493965e-05
aF2.2701809899493965e-05
aF2.2701809899493965e-05
aF2.2701809899493965e-05
aF2.2701809899493965e-05
aF2.2701809899493965e-05
aF2.2701809899493965e-05
aF2.2701809899493965e-05
aF2.2701809899493965e-05
aF2.2701809899493965e-05
aF2.2701809899493965e-05
aF2.2701809899493965e-05
aF2.2701809899493965e-05
aF2.2701809899493965e-05
aF2.2701809899493965e-05
aF2.2701809899493965e-05
aF2.2701809899493965e-05
aF2.2701809899493965e-05
aF2.2701809899493965e-05
aF2.2701809899493965e-05
aF2.2701809899493965e-05
aF2.2701809899493965e-05
aF2.2701809899493965e-05
aF2.2701809899493965e-05
aF2.2701809899493965e-05
aF2.2701809899493965e-05
aF2.2701809899493965e-05
aF2.2701809899493965e-05
aF2.2701809899493965e-05
aF2.2701809899493965e-05
aF2.2701809899493965e-05
aF2.2701809899493965e-05
aF2.2701809899493965e-05
aF2.2701809899493965e-05
aF2.2701809899493965e-05
aF2.2701809899493965e-05
aF2.2701809899493965e-05
aF2.2701809899493965e-05
aF2.2701809899493965e-05
aF2.2701809899493965e-05
aF2.2701809899493965e-05
aF2.2701809899493965e-05
aF2.2701809899493965e-05
aF2.2701809899493965e-05
aF2.2701809899493965e-05
aF2.2701809899493965e-05
aF2.2701809899493965e-05
aF2.2701809899493965e-05
aF2.2701809899493965e-05
aF2.2701809899493965e-05
aF2.2701809899493965e-05
aF2.2701809899493965e-05
aF2.2701809899493965e-05
aF2.2701809899493965e-05
aF2.2701809899493965e-05
aF2.2701809899493965e-05
aF2.2701809899493965e-05
aF2.2701809899493965e-05
aF2.2701809899493965e-05
aF2.2701809899493965e-05
aF2.2701809899493965e-05
aF2.2701809899493965e-05
aF2.2701809899493965e-05
aF2.2701809899493965e-05
aF2.2701809899493965e-05
aF2.2701809899493965e-05
aF2.2701809899493965e-05
aF2.2701809899493965e-05
aF2.2701809899493965e-05
aF2.2701809899493965e-05
aF2.2701809899493965e-05
aF2.2701809899493965e-05
aF2.2701809899493965e-05
aF2.2701809899493965e-05
aF2.2701809899493965e-05
aF2.2701809899493965e-05
aF2.2701809899493965e-05
aF2.2701809899493965e-05
aF2.2701809899493965e-05
aF2.2701809899493965e-05
aF2.2701809899493965e-05
aF2.2701809899493965e-05
aF2.2701809899493965e-05
aF2.2701809899493965e-05
aF2.2701809899493965e-05
aF2.2701809899493965e-05
aF2.2701809899493965e-05
aF2.2701809899493965e-05
aF2.2701809899493965e-05
aF2.2701809899493965e-05
aF2.2701809899493965e-05
aF2.2701809899493965e-05
aF2.2701809899493965e-05
aF2.2701809899493965e-05
aF2.2701809899493965e-05
aF2.2701809899493965e-05
aF2.2701809899493965e-05
aF2.2701809899493965e-05
aF2.2701809899493965e-05
aF2.2701809899493965e-05
aF2.2701809899493965e-05
aF2.2701809899493965e-05
aF2.2701809899493965e-05
aF2.2701809899493965e-05
aF2.2701809899493965e-05
aF2.2701809899493965e-05
aF2.2701809899493965e-05
aF2.2701809899493965e-05
aF2.2701809899493965e-05
aF2.2701809899493965e-05
aF2.2701809899493965e-05
aF2.2701809899493965e-05
aF2.2701809899493965e-05
aF2.2701809899493965e-05
aF2.2701809899493965e-05
aF2.2701809899493965e-05
aF2.2701809899493965e-05
aF2.2701809899493965e-05
aF2.2701809899493965e-05
aF2.2701809899493965e-05
aF2.2701809899493965e-05
aF2.2701809899493965e-05
aF2.2701809899493965e-05
aF2.2701809899493965e-05
aF2.2701809899493965e-05
aF2.2701809899493965e-05
aF2.2701809899493965e-05
aF2.2701809899493965e-05
aF2.2701809899493965e-05
aF2.2701809899493965e-05
aF2.2701809899493965e-05
aF2.2701809899493965e-05
aF2.2701809899493965e-05
aF2.2701809899493965e-05
aF2.2701809899493965e-05
aF2.2701809899493965e-05
aF2.2701809899493965e-05
aF2.2701809899493965e-05
aF2.2701809899493965e-05
aF2.2701809899493965e-05
aF2.2701809899493965e-05
aF2.2701809899493965e-05
aF2.2701809899493965e-05
aF2.2701809899493965e-05
aF2.2701809899493965e-05
aF2.2701809899493965e-05
aF2.2701809899493965e-05
aF2.2701809899493965e-05
aF2.2701809899493965e-05
aF2.2701809899493965e-05
aF2.2701809899493965e-05
aF2.2701809899493965e-05
aF2.2701809899493965e-05
aF2.2701809899493965e-05
aF2.2701809899493965e-05
aF2.2701809899493965e-05
aF2.2701809899493965e-05
aF2.2701809899493965e-05
aF2.2701809899493965e-05
aF2.2701809899493965e-05
aF2.2701809899493965e-05
aF2.2701809899493965e-05
aF2.2701809899493965e-05
aF2.2701809899493965e-05
aF2.2701809899493965e-05
aF2.2701809899493965e-05
aF2.2701809899493965e-05
aF2.2701809899493965e-05
aF2.2701809899493965e-05
aF2.2701809899493965e-05
aF2.2701809899493965e-05
aF2.2701809899493965e-05
aF2.2701809899493965e-05
aF2.2701809899493965e-05
aF2.2701809899493965e-05
aF2.2701809899493965e-05
aF2.2701809899493965e-05
aF2.2701809899493965e-05
aF2.2701809899493965e-05
aF2.2701809899493965e-05
aF2.2701809899493965e-05
aF2.2701809899493965e-05
aF2.2701809899493965e-05
aF2.2701809899493965e-05
aF2.2701809899493965e-05
aF2.2701809899493965e-05
aF2.2701809899493965e-05
aF2.2701809899493965e-05
aF2.2701809899493965e-05
aF2.2701809899493965e-05
aF2.2701809899493965e-05
aF2.2701809899493965e-05
aF2.2701809899493965e-05
aF2.2701809899493965e-05
aF2.2701809899493965e-05
aF2.2701809899493965e-05
aF2.2701809899493965e-05
aF2.2701809899493965e-05
aF2.2701809899493965e-05
aF2.2701809899493965e-05
aF2.2701809899493965e-05
aF2.2701809899493965e-05
aF2.2701809899493965e-05
aF2.2701809899493965e-05
aF2.2701809899493965e-05
aF2.2701809899493965e-05
aF2.2701809899493965e-05
aF2.2701809899493965e-05
aF2.2701809899493965e-05
aF2.2701809899493965e-05
aF2.2701809899493965e-05
aF2.2701809899493965e-05
aF2.2701809899493965e-05
aF2.2701809899493965e-05
aF2.2701809899493965e-05
aF2.2701809899493965e-05
aF2.2701809899493965e-05
aF2.2701809899493965e-05
aF2.2701809899493965e-05
aF2.2701809899493965e-05
aF2.2701809899493965e-05
aF2.2701809899493965e-05
aF2.2701809899493965e-05
aF2.2701809899493965e-05
aF2.2701809899493965e-05
aF2.2701809899493965e-05
aF2.2701809899493965e-05
aF2.2701809899493965e-05
aF2.2701809899493965e-05
aF2.2701809899493965e-05
aF2.2701809899493965e-05
aF2.2701809899493965e-05
aF2.2701809899493965e-05
aF2.2701809899493965e-05
aF2.2701809899493965e-05
aF2.2701809899493965e-05
aF2.2701809899493965e-05
aF2.2701809899493965e-05
aF2.2701809899493965e-05
aF2.2701809899493965e-05
aF2.2701809899493965e-05
aF2.2701809899493965e-05
aF2.2701809899493965e-05
aF2.2701809899493965e-05
aF2.2701809899493965e-05
aF2.2701809899493965e-05
aF2.2701809899493965e-05
aF2.2701809899493965e-05
aF2.2701809899493965e-05
aF2.2701809899493965e-05
aF2.2701809899493965e-05
aF2.2701809899493965e-05
aF2.2701809899493965e-05
aF2.2701809899493965e-05
aF2.2701809899493965e-05
aF2.2701809899493965e-05
aF2.2701809899493965e-05
aF2.2701809899493965e-05
aF2.2701809899493965e-05
aF2.2701809899493965e-05
aF2.2701809899493965e-05
aF2.2701809899493965e-05
aF2.2701809899493965e-05
aF2.2701809899493965e-05
aF2.2701809899493965e-05
aF2.2701809899493965e-05
aF2.2701809899493965e-05
aF2.2701809899493965e-05
aF2.2701809899493965e-05
aF2.2701809899493965e-05
aF2.2701809899493965e-05
aF2.2701809899493965e-05
aF2.2701809899493965e-05
aF2.2701809899493965e-05
aF2.2701809899493965e-05
aF2.2701809899493965e-05
aF2.2701809899493965e-05
aF2.2701809899493965e-05
aF2.2701809899493965e-05
aF2.2701809899493965e-05
aF2.2701809899493965e-05
aF2.2701809899493965e-05
aF2.2701809899493965e-05
aF2.2701809899493965e-05
aF2.2701809899493965e-05
aF2.2701809899493965e-05
aF2.2701809899493965e-05
aF2.2701809899493965e-05
aF2.2701809899493965e-05
aF2.2701809899493965e-05
aF2.2701809899493965e-05
aF2.2701809899493965e-05
aF2.2701809899493965e-05
aF2.2701809899493965e-05
aF2.2701809899493965e-05
aF2.2701809899493965e-05
aF2.2701809899493965e-05
aF2.2701809899493965e-05
aF2.2701809899493965e-05
aF2.2701809899493965e-05
aF2.2701809899493965e-05
aF2.2701809899493965e-05
aF2.2701809899493965e-05
aF2.2701809899493965e-05
aF2.2701809899493965e-05
aF2.2701809899493965e-05
aF2.2701809899493965e-05
aF2.2701809899493965e-05
aaa(lp7
(lp8
F0.0
aF0.0
aF0.0
aF0.0
aF0.0
aF0.0
aF0.0
aF0.0
aF0.0
aF0.0
aF0.0
aF0.0
aF0.0
aF0.0
aF0.0
aF0.0
aF0.0
aF0.0
aF0.0
aF0.0
aF0.0
aF0.0
aF0.0
aF0.0
aF0.0
aF0.0
aF0.0
aF0.0
aF0.0
aF0.0
aF0.0
aF0.0
aF0.0
aF0.0
aF0.0
aF0.0
aF0.0
aF0.0
aF0.0
aF0.0
aF0.0
aF0.0
aF0.0
aF0.0
aF0.0
aF0.0
aF0.0
aF0.0
aF0.0
aF0.0
aF0.0
aF0.0
aF0.0
aF0.0
aF0.0
aF0.0
aF0.0
aF0.0
aF0.0
aF0.0
aF0.0
aF0.0
aF0.0
aF0.0
aF0.0
aF0.0
aF0.0
aF0.0
aF0.0
aF0.0
aF0.0
aF0.0
aF0.0
aF0.0
aF0.0
aF0.0
aF0.0
aF0.0
aF0.0
aF0.0
aF0.0
aF0.0
aF0.0
aF0.0
aF0.0
aF0.0
aF0.0
aF0.0
aF0.0
aF0.0
aF0.0
aF0.0
aF0.0
aF0.0
aF0.0
aF0.0
aF0.0
aF0.0
aF0.0
aF0.0
aF0.0
aF0.0
aF0.0
aF0.0
aF0.0
aF0.0
aF0.0
aF0.0
aF0.0
aF0.0
aF0.0
aF0.0
aF0.0
aF0.0
aF0.0
aF0.0
aF0.0
aF0.0
aF0.0
aF0.0
aF0.0
aF0.0
aF0.0
aF0.0
aF0.0
aF0.0
aF0.0
aF0.0
aF0.0
aF0.0
aF0.0
aF0.0
aF0.0
aF0.0
aF0.0
aF0.0
aF0.0
aF0.0
aF0.0
aF0.0
aF0.0
aF0.0
aF0.0
aF0.0
aF0.0
aF0.0
aF0.0
aF0.0
aF0.0
aF0.0
aF0.0
aF0.0
aF0.0
aF0.0
aF0.0
aF0.0
aF0.0
aF0.0
aF0.0
aF0.0
aF0.0
aF0.0
aF0.0
aF0.0
aF0.0
aF0.0
aF0.0
aF0.0
aF0.0
aF0.0
aF0.0
aF0.0
aF0.0
aF0.0
aF0.0
aF0.0
aF0.0
aF0.0
aF0.0
aF0.0
aF0.0
aF0.0
aF0.0
aF0.0
aF0.0
aF0.0
aF0.0
aF0.0
aF0.0
aF0.0
aF0.0
aF0.0
aF0.0
aF0.0
aF0.0
aF0.0
aF0.0
aF0.0
aF0.0
aF0.0
aF0.0
aF0.0
aF0.0
aF0.0
aF0.0
aF0.0
aF0.0
aF0.0
aF0.0
aF0.0
aF0.0
aF0.0
aF0.0
aF0.0
aF0.0
aF0.0
aF0.0
aF0.0
aF0.0
aF0.0
aF0.0
aF0.0
aF0.0
aF0.0
aF0.0
aF0.0
aF0.0
aF0.0
aF0.0
aF0.0
aF0.0
aF0.0
aF0.0
aF0.0
aF0.0
aF0.0
aF0.0
aF0.0
aF0.0
aF0.0
aF0.0
aF0.0
aF0.0
aF0.0
aF0.0
aF0.0
aF0.0
aF0.0
aF0.0
aF0.0
aF0.0
aF0.0
aF0.0
aF0.0
aF0.0
aF0.0
aF0.0
aF0.0
aF0.0
aF0.0
aF0.0
aF0.0
aF0.0
aF0.0
aF0.0
aF0.0
aF0.0
aF0.0
aF0.0
aF0.0
aF0.0
aF0.0
aF0.0
aF0.0
aF0.0
aF0.0
aF0.0
aF0.0
aF0.0
aF0.0
aF0.0
aF0.0
aF0.0
aF0.0
aF0.0
aF0.0
aF0.0
aF0.0
aF0.0
aF0.0
aF0.0
aF0.0
aF0.0
aF0.0
aF0.0
aF0.0
aF0.0
aF0.0
aF0.0
aF0.0
aF0.0
aF0.0
aF0.0
aF0.0
aF0.0
aF0.0
aF0.0
aF0.0
aF0.0
aF0.0
aF0.0
aF0.0
aF0.0
aF0.0
aF0.0
aF0.0
aF0.0
aF0.0
aF0.0
aF0.0
aF0.0
aF0.0
aF0.0
aF0.0
aF0.0
aF0.0
aF0.0
aF0.0
aF0.0
aF0.0
aF0.0
aF0.0
aF0.0
aF0.0
aF0.0
aF0.0
aF0.0
aF0.0
aF0.0
aF0.0
aF0.0
aF0.0
aF0.0
aF0.0
aF0.0
aF0.0
aF0.0
aF0.0
aF0.0
aF0.0
aF0.0
aF0.0
aF0.0
aF0.09063070802712456
aF0.0
aF0.0
aF0.0
aF0.0
aF0.0
aF0.0
aF0.0
aF0.0
aF0.0
aF0.0
aF0.0
aF0.0
aF0.0
aF0.0
aF0.0
aF0.0
aF0.0
aF0.0
aF0.0
aF0.0
aF0.0
aF0.0
aF0.0
aF0.0
aF0.0
aF0.0
aF0.0
aF0.0
aF0.0
aF0.0
aF0.0
aF0.0
aF0.0
aF0.0
aF0.0
aF0.0
aF0.0
aF0.0
aF0.0
aF0.0
aF0.0
aF0.0
aF0.0
aF0.0
aF0.0
aF0.0
aF0.0
aF0.0
aF0.0
aF0.0
aF0.0
aF0.0
aF0.0
aF0.0
aF0.0
aF0.0
aF0.0
aF0.0
aF0.0
aF0.0
aF0.0
aF0.0
aF0.0
aF0.0
aF0.0
aF0.0
aF0.0
aF0.0
aF0.0
aF0.0
aF0.0
aF0.0
aF0.0
aF0.0
aF0.0
aF0.0
aF0.0
aF0.0
aF0.0
aF0.0
aF0.0
aF0.0
aF0.0
aF0.0
aF0.0
aF0.0
aF0.0
aF0.0
aF0.0
aF0.0
aF0.0
aF0.0
aF0.0
aF0.0
aF0.0
aF0.0
aF0.0
aF0.0
aF0.0
aF0.0
aF0.0
aF0.0
aF0.0
aF0.0
aF0.0
aF0.0
aF0.0
aF0.0
aF0.0
aF0.0
aF0.0
aF0.0
aF0.0
aF0.0
aF0.0
aF0.0
aF0.0
aF0.0
aF0.0
aF0.0
aF0.0
aF0.0
aF0.0
aF0.0
aF0.0
aF0.0
aF0.0
aF0.0
aF0.0
aF0.0
aF0.0
aF0.0
aF0.0
aF0.0
aF0.0
aF0.0
aF0.0
aF0.0
aF0.0
aF0.0
aF0.0
aF0.0
aF0.0
aF0.0
aF0.0
aF0.0
aF0.0
aF0.0
aF0.0
aF0.0
aF0.0
aF0.0
aF0.0
aF0.0
aF0.0
aF0.0
aF0.0
aF0.0
aF0.0
aF0.0
aF0.0
aF0.0
aF0.0
aF0.0
aF0.0
aF0.0
aF0.0
aF0.0
aF0.0
aF0.0
aF0.0
aF0.0
aF0.0
aF0.0
aF0.0
aF0.0
aF0.0
aF0.0
aF0.0
aF0.0
aF0.0
aF0.0
aF0.0
aF0.0
aF0.0
aF0.0
aF0.0
aF0.0
aF0.0
aF0.0
aF0.0
aF0.0
aF0.0
aF0.0
aF0.0
aF0.0
aF0.0
aF0.0
aF0.0
aF0.0
aF0.0
aF0.0
aF0.0
aF0.0
aF0.0
aF0.0
aF0.0
aF0.0
aF0.0
aF0.0
aF0.0
aF0.0
aF0.0
aF0.0
aF0.0
aF0.0
aF0.0
aF0.0
aF0.0
aF0.0
aF0.0
aF0.0
aF0.0
aF0.0
aF0.0
aF0.0
aF0.0
aF0.0
aF0.0
aF0.0
aF0.0
aF0.0
aF0.0
aF0.0
aF0.0
aF0.0
aF0.0
aF0.0
aF0.0
aF0.0
aF0.0
aF0.0
aF0.0
aF0.0
aF0.0
aF0.0
aF0.0
aF0.0
aF0.0
aF0.0
aF0.0
aF0.0
aF0.0
aF0.0
aF0.0
aF0.0
aF0.0
aF0.0
aF0.0
aF0.0
aF0.0
aF0.0
aF0.0
aF0.0
aF0.0
aF0.0
aF0.0
aF0.0
aF0.0
aF0.0
aF0.0
aF0.0
aF0.0
aF0.0
aF0.0
aF0.0
aF0.0
aF0.0
aF0.0
aF0.0
aF0.0
aF0.0
aF0.0
aF0.0
aF0.0
aF0.0
aa(lp9
F0.0
aF0.0
aF0.0
aF0.0
aF0.0
aF0.0
aF0.0
aF0.0
aF0.0
aF0.0
aF0.0
aF0.0
aF0.0
aF0.0
aF0.0
aF0.0
aF0.0
aF0.0
aF0.0
aF0.0
aF0.0
aF0.0
aF0.0
aF0.0
aF0.0
aF0.0
aF0.0
aF0.0
aF0.0
aF0.0
aF0.0
aF0.0
aF0.0
aF0.0
aF0.0
aF0.0
aF0.0
aF0.0
aF0.0
aF0.0
aF0.0
aF0.0
aF0.0
aF0.0
aF0.0
aF0.0
aF0.0
aF0.0
aF0.0
aF0.0
aF0.0
aF0.0
aF0.0
aF0.0
aF0.0
aF0.0
aF0.0
aF0.0
aF0.0
aF0.0
aF0.0
aF0.0
aF0.0
aF0.0
aF0.0
aF0.0
aF0.0
aF0.0
aF0.0
aF0.0
aF0.0
aF0.0
aF0.0
aF0.0
aF0.0
aF0.0
aF0.0
aF0.0
aF0.0
aF0.0
aF0.0
aF0.0
aF0.0
aF0.0
aF0.0
aF0.0
aF0.0
aF0.0
aF0.0
aF0.0
aF0.0
aF0.0
aF0.0
aF0.0
aF0.0
aF0.0
aF0.0
aF0.0
aF0.0
aF0.0
aF0.0
aF0.0
aF0.0
aF0.0
aF0.0
aF0.0
aF0.0
aF0.0
aF0.0
aF0.0
aF0.0
aF0.0
aF0.0
aF0.0
aF0.0
aF0.0
aF0.0
aF0.0
aF0.0
aF0.0
aF0.0
aF0.0
aF0.0
aF0.0
aF0.0
aF0.0
aF0.0
aF0.0
aF0.0
aF0.0
aF0.0
aF0.0
aF0.0
aF0.0
aF0.0
aF0.0
aF0.0
aF0.0
aF0.0
aF0.0
aF0.0
aF0.0
aF0.0
aF0.0
aF0.0
aF0.0
aF0.0
aF0.0
aF0.0
aF0.0
aF0.0
aF0.0
aF0.0
aF0.0
aF0.0
aF0.0
aF0.0
aF0.0
aF0.0
aF0.0
aF0.0
aF0.0
aF0.0
aF0.0
aF0.0
aF0.0
aF0.0
aF0.0
aF0.0
aF0.0
aF0.0
aF0.0
aF0.0
aF0.0
aF0.0
aF0.0
aF0.0
aF0.0
aF0.0
aF0.0
aF0.0
aF0.0
aF0.0
aF0.0
aF0.0
aF0.0
aF0.0
aF0.0
aF0.0
aF0.0
aF0.0
aF0.0
aF0.0
aF0.0
aF0.0
aF0.0
aF0.0
aF0.0
aF0.0
aF0.0
aF0.0
aF0.0
aF0.0
aF0.0
aF0.0
aF0.0
aF0.0
aF0.0
aF0.0
aF0.0
aF0.0
aF0.0
aF0.0
aF0.0
aF0.0
aF0.0
aF0.0
aF0.0
aF0.0
aF0.0
aF0.0
aF0.0
aF0.0
aF0.0
aF0.0
aF0.0
aF0.0
aF0.0
aF0.0
aF0.0
aF0.0
aF0.0
aF0.0
aF0.0
aF0.0
aF0.0
aF0.0
aF0.0
aF0.0
aF0.0
aF0.0
aF0.0
aF0.0
aF0.0
aF0.0
aF0.0
aF0.0
aF0.0
aF0.0
aF0.0
aF0.0
aF0.0
aF0.0
aF0.0
aF0.0
aF0.0
aF0.0
aF0.0
aF0.0
aF0.0
aF0.0
aF0.0
aF0.0
aF0.0
aF0.0
aF0.0
aF0.0
aF0.0
aF0.0
aF0.0
aF0.0
aF0.0
aF0.0
aF0.0
aF0.0
aF0.0
aF0.0
aF0.0
aF0.0
aF0.0
aF0.0
aF0.0
aF0.0
aF0.0
aF0.0
aF0.0
aF0.0
aF0.0
aF0.0
aF0.0
aF0.0
aF0.0
aF0.0
aF0.0
aF0.0
aF0.0
aF0.0
aF0.0
aF0.0
aF0.0
aF0.0
aF0.0
aF0.0
aF0.0
aF0.0
aF0.0
aF0.0
aF0.0
aF0.0
aF0.0
aF0.0
aF0.0
aF0.0
aF0.0
aF0.0
aF0.0
aF0.0
aF0.0
aF0.0
aF0.0
aF0.0
aF0.0
aF0.0
aF0.0
aF0.0
aF0.0
aF0.0
aF0.0
aF0.0
aF0.0
aF0.0
aF0.0
aF0.0
aF0.0
aF0.0
aF0.0
aF0.0
aF0.0
aF0.0
aF0.0
aF0.0
aF0.0
aF0.0
aF0.0
aF0.0
aF0.0
aF0.0
aF0.0
aF0.0
aF0.0
aF0.0
aF0.0
aF0.0
aF0.0
aF0.0
aF0.0
aF0.0
aF0.0
aF0.0
aF0.0
aF0.0
aF0.0
aF0.0
aF0.0
aF0.0
aF0.0
aF0.0
aF0.0
aF0.0
aF0.0
aF0.0
aF0.0
aF0.0
aF0.0
aF0.0
aF0.0
aF0.0
aF0.0
aF0.0
aF0.0
aF0.0
aF0.0
aF0.0
aF0.0
aF0.0
aF0.0
aF0.0
aF0.0
aF0.0
aF0.0
aF0.0
aF0.0
aF0.0
aF0.0
aF0.0
aF0.0
aF0.0
aF0.0
aF0.0
aF0.0
aF0.0
aF0.0
aF0.0
aF0.0
aF0.0
aF0.0
aF0.0
aF0.0
aF0.0
aF0.0
aF0.0
aF0.0
aF0.0
aF0.0
aF0.0
aF0.0
aF0.0
aF0.0
aF0.0
aF0.0
aF0.0
aF0.0
aF0.0
aF0.0
aF0.0
aF0.0
aF0.0
aF0.0
aF0.0
aF0.0
aF0.0
aF0.0
aF0.0
aF0.0
aF0.0
aF0.0
aF0.0
aF0.0
aF0.0
aF0.0
aF0.0
aF0.0
aF0.0
aF0.0
aF0.0
aF0.0
aF0.0
aF0.0
aF0.0
aF0.0
aF0.0
aF0.0
aF0.0
aF0.0
aF0.0
aF0.0
aF0.0
aF0.0
aF0.0
aF0.0
aF0.0
aF0.0
aF0.0
aF0.0
aF0.0
aF0.0
aF0.0
aF0.0
aF0.0
aF0.0
aF0.0
aF0.0
aF0.0
aF0.0
aF0.0
aF0.0
aF0.0
aF0.0
aF0.0
aF0.0
aF0.0
aF0.0
aF0.0
aF0.0
aF0.0
aF0.0
aF0.0
aF0.0
aF0.0
aF0.0
aF0.0
aF0.0
aF0.0
aF0.0
aF0.0
aF0.0
aF0.0
aF0.0
aF0.0
aF0.0
aF0.0
aF0.0
aF0.0
aF0.0
aF0.0
aF0.0
aF0.0
aF0.0
aF0.0
aF0.0
aF0.0
aF0.0
aF0.0
aF0.0
aF0.0
aF0.0
aF0.0
aF0.0
aF0.0
aF0.0
aF0.0
aF0.0
aF0.0
aF0.0
aF0.0
aF0.0
aF0.0
aF0.0
aF0.0
aF0.0
aF0.0
aF0.0
aF0.0
aF0.0
aF0.0
aF0.0
aF0.0
aF0.0
aF0.0
aF0.0
aF0.0
aF0.0
aF0.0
aF0.0
aF0.0
aF0.0
aF0.0
aF0.0
aF0.0
aF0.0
aF0.0
aF0.0
aF0.0
aF0.0
aF0.0
aF0.0
aF0.0
aF0.0
aF0.0
aF0.0
aF0.0
aF0.0
aF0.0
aF0.0
aF0.0
aF0.0
aF0.0
aF0.0
aF0.0
aF0.0
aF0.0
aF0.0
aF0.0
aF0.0
aF0.0
aF0.0
aF0.0
aF0.0
aF0.0
aF0.0
aF0.0
aF0.0
aF0.0
aF0.0
aF0.0
aF0.0
aF0.0
aF0.0
aF0.0
aF0.0
aF0.0
aF0.0
aF0.0
aF0.0
aF0.0
aF0.0
aF0.0
aF0.0
aF0.0
aF0.0
aF0.0
aF0.0
aF0.0
aF0.0
aF0.0
aF0.0
aF0.0
aF0.0
aF0.0
aF0.0
aF0.0
aF0.0
aF0.0
aF0.0
aF0.0
aF0.0
aF0.0
aF0.0
aF0.0
aF0.0
aF0.0
aF0.0
aF0.0
aF0.0
aF0.0
aF0.0
aF0.0
aF0.0
aF0.0
aF0.0
aF0.0
aF0.0
aF0.0
aF0.0
aF0.0
aF0.0
aF0.0
aF0.0
aF0.0
aF0.0
aaa(lp10
(lp11
F0.0
aF0.0
aF0.0
aF0.0
aF0.0
aF0.0
aF0.0
aF0.0
aF0.0
aF0.0
aF0.0
aF0.0
aF0.0
aF0.0
aF0.0
aF0.0
aF0.0
aF0.0
aF0.0
aF0.0
aF0.0
aF0.0
aF0.0
aF0.0
aF0.0
aF0.0
aF0.0
aF0.0
aF0.0
aF0.0
aF0.0
aF0.0
aF0.0
aF0.0
aF0.0
aF0.0
aF0.0
aF0.0
aF0.0
aF0.0
aF0.0
aF0.0
aF0.0
aF0.0
aF0.0
aF0.0
aF0.0
aF0.0
aF0.0
aF0.0
aF0.0
aF0.0
aF0.0
aF0.0
aF0.0
aF0.0
aF0.0
aF0.0
aF0.0
aF0.0
aF0.0
aF0.0
aF0.0
aF0.0
aF0.0
aF0.0
aF0.0
aF0.0
aF0.0
aF0.0
aF0.0
aF0.0
aF0.0
aF0.0
aF0.0
aF0.0
aF0.0
aF0.0
aF0.0
aF0.0
aF0.0
aF0.0
aF0.0
aF0.0
aF0.0
aF0.0
aF0.0
aF0.0
aF0.0
aF0.0
aF0.0
aF0.0
aF0.0
aF0.0
aF0.0
aF0.0
aF0.0
aF0.0
aF0.0
aF0.0
aF0.0
aF0.0
aF0.0
aF0.0
aF0.0
aF0.0
aF0.0
aF0.0
aF0.0
aF0.0
aF0.0
aF0.0
aF0.0
aF0.0
aF0.0
aF0.0
aF0.0
aF0.0
aF0.0
aF0.0
aF0.0
aF0.0
aF0.0
aF0.0
aF0.0
aF0.0
aF0.0
aF0.0
aF0.0
aF0.0
aF0.0
aF0.0
aF0.0
aF0.0
aF0.0
aF0.0
aF0.0
aF0.0
aF0.0
aF0.0
aF0.0
aF0.0
aF0.0
aF0.0
aF0.0
aF0.0
aF0.0
aF0.0
aF0.0
aF0.0
aF0.0
aF0.0
aF0.0
aF0.0
aF0.0
aF0.0
aF0.0
aF0.0
aF0.0
aF0.0
aF0.0
aF0.0
aF0.0
aF0.0
aF0.0
aF0.0
aF0.0
aF0.0
aF0.0
aF0.0
aF0.0
aF0.0
aF0.0
aF0.0
aF0.0
aF0.0
aF0.0
aF0.0
aF0.0
aF0.0
aF0.0
aF0.0
aF0.0
aF0.0
aF0.0
aF0.0
aF0.0
aF0.0
aF0.0
aF0.0
aF0.0
aF0.0
aF0.0
aF0.0
aF0.0
aF0.0
aF0.0
aF0.0
aF0.0
aF0.0
aF0.0
aF0.0
aF0.0
aF0.0
aF0.0
aF0.0
aF0.0
aF0.0
aF0.0
aF0.0
aF0.0
aF0.0
aF0.0
aF0.0
aF0.0
aF0.0
aF0.0
aF0.0
aF0.0
aF0.0
aF0.0
aF0.0
aF0.0
aF0.0
aF0.0
aF0.0
aF0.0
aF0.0
aF0.0
aF0.0
aF0.0
aF0.0
aF0.0
aF0.0
aF0.0
aF0.0
aF0.0
aF0.0
aF0.0
aF0.0
aF0.0
aF0.0
aF0.0
aF0.0
aF0.0
aF0.0
aF0.0
aF0.0
aF0.0
aF0.0
aF0.0
aF0.0
aF0.0
aF0.0
aF0.0
aF0.0
aF0.0
aF0.0
aF0.0
aF0.0
aF0.0
aF0.0
aF0.0
aF0.0
aF0.0
aF0.0
aF0.0
aF0.0
aF0.0
aF0.0
aF0.0
aF0.0
aF0.0
aF0.0
aF0.0
aF0.0
aF0.0
aF0.0
aF0.0
aF0.0
aF0.0
aF0.0
aF0.0
aF0.0
aF0.0
aF0.0
aF0.0
aF0.0
aF0.0
aF0.0
aF0.0
aF0.0
aF0.0
aF0.0
aF0.0
aF0.0
aF0.0
aF0.0
aF0.0
aF0.0
aF0.0
aF0.0
aF0.0
aF0.0
aF0.0
aF0.0
aF0.0
aF0.0
aF0.0
aF0.0
aF0.0
aF0.0
aF0.0
aF0.0
aF0.0
aF0.0
aF0.0
aF0.0
aF0.0
aF0.0
aF0.0
aF0.0
aF0.0
aF0.0
aF0.0
aF0.0
aF0.0
aF0.0
aF0.0
aF0.0
aF0.0
aF0.0
aF0.0
aF0.0
aF0.0
aF0.0
aF0.0
aF0.0
aF0.0
aF0.0
aF0.0
aF0.0
aF0.0
aF0.0
aF0.0
aF0.0
aF0.0
aF0.0
aF0.0
aF0.0
aF0.0
aF0.0
aF0.0
aF0.0
aF0.0
aF0.0
aF0.0
aF0.0
aF0.0
aF0.0
aF0.0
aF0.0
aF0.0
aF0.0
aF0.0
aF0.0
aF0.0
aF0.0
aF0.0
aF0.0
aF0.0
aF0.0
aF0.0
aF0.0
aF0.0
aF0.0
aF0.0
aF0.0
aF0.0
aF0.0
aF0.0
aF0.0
aF0.0
aF0.0
aF0.0
aF0.0
aF0.0
aF0.0
aF0.0
aF0.0
aF0.0
aF0.0
aF0.0
aF0.0
aF0.0
aF0.0
aF0.0
aF0.0
aF0.0
aF0.0
aF0.0
aF0.0
aF0.0
aF0.0
aF0.0
aF0.0
aF0.0
aF0.0
aF0.0
aF0.0
aF0.0
aF0.0
aF0.0
aF0.0
aF0.0
aF0.0
aF0.0
aF0.0
aF0.0
aF0.0
aF0.0
aF0.0
aF0.0
aF0.0
aF0.0
aF0.0
aF0.0
aF0.0
aF0.0
aF0.0
aF0.0
aF0.0
aF0.0
aF0.0
aF0.0
aF0.0
aF0.0
aF0.0
aF0.0
aF0.0
aF0.0
aF0.0
aF0.0
aF0.0
aF0.0
aF0.0
aF0.0
aF0.0
aF0.0
aF0.0
aF0.0
aF0.0
aF0.0
aF0.0
aF0.0
aF0.0
aF0.0
aF0.0
aF0.0
aF0.0
aF0.0
aF0.0
aF0.0
aF0.0
aF0.0
aF0.0
aF0.0
aF0.0
aF0.0
aF0.0
aF0.0
aF0.0
aF0.0
aF0.0
aF0.0
aF0.0
aF0.0
aF0.0
aF0.0
aF0.0
aF0.0
aF0.0
aF0.0
aF0.0
aF0.0
aF0.0
aF0.0
aF0.0
aF0.0
aF0.0
aF0.0
aF0.0
aF0.0
aF0.0
aF0.0
aF0.0
aF0.0
aF0.0
aF0.0
aF0.0
aF0.0
aF0.0
aF0.0
aF0.0
aF0.0
aF0.0
aF0.0
aF0.0
aF0.0
aF0.0
aF0.0
aF0.0
aF0.0
aF0.0
aF0.0
aF0.0
aF0.0
aF0.0
aF0.0
aF0.0
aF0.044926112284916435
aF0.0
aF0.0
aF0.0
aF0.0
aF0.0
aF0.0
aF0.0
aF0.0
aF0.0
aF0.0
aF0.0
aF0.0
aF0.0
aF0.0
aF0.0
aF0.0
aF0.0
aF0.0
aF0.0
aF0.0
aF0.0
aF0.0
aF0.0
aF0.0
aF0.0
aF0.0
aF0.0
aF0.0
aF0.0
aF0.0
aF0.0
aF0.0
aF0.0
aF0.0
aF0.0
aF0.0
aF0.0
aF0.0
aF0.0
aF0.0
aF0.0
aF0.0
aF0.0
aF0.0
aF0.0
aF0.0
aF0.0
aF0.0
aF0.0
aF0.0
aF0.0
aF0.0
aF0.0
aF0.0
aF0.0
aF0.0
aF0.0
aF0.0
aF0.0
aF0.0
aF0.0
aF0.0
aF0.0
aF0.0
aF0.0
aF0.0
aF0.0
aF0.0
aF0.0
aF0.0
aF0.0
aF0.0
aF0.0
aF0.0
aF0.0
aF0.0
aF0.0
aF0.0
aF0.0
aF0.0
aF0.0
aF0.0
aF0.0
aF0.0
aF0.0
aF0.0
aF0.0
aF0.0
aF0.0
aF0.0
aF0.0
aF0.0
aF0.0
aF0.0
aF0.0
aF0.0
aF0.0
aF0.0
aF0.0
aF0.0
aF0.0
aF0.0
aF0.0
aF0.0
aF0.0
aF0.0
aF0.0
aF0.0
aF0.0
aF0.0
aF0.0
aF0.0
aF0.0
aF0.0
aF0.0
aF0.0
aF0.0
aF0.0
aF0.0
aa(lp12
F0.0
aF0.0
aF0.0
aF0.0
aF0.0
aF0.0
aF0.0
aF0.0
aF0.0
aF0.0
aF0.0
aF0.0
aF0.0
aF0.0
aF0.0
aF0.0
aF0.0
aF0.0
aF0.0
aF0.0
aF0.0
aF0.0
aF0.0
aF0.0
aF0.0
aF0.0
aF0.0
aF0.0
aF0.0
aF0.0
aF0.0
aF0.0
aF0.0
aF0.0
aF0.0
aF0.0
aF0.0
aF0.0
aF0.0
aF0.0
aF0.0
aF0.0
aF0.0
aF0.0
aF0.0
aF0.0
aF0.0
aF0.0
aF0.0
aF0.0
aF0.0
aF0.0
aF0.0
aF0.0
aF0.0
aF0.0
aF0.0
aF0.0
aF0.0
aF0.0
aF0.0
aF0.0
aF0.0
aF0.0
aF0.0
aF0.0
aF0.0
aF0.0
aF0.0
aF0.0
aF0.0
aF0.0
aF0.0
aF0.0
aF0.0
aF0.0
aF0.0
aF0.0
aF0.0
aF0.0
aF0.0
aF0.0
aF0.0
aF0.0
aF0.0
aF0.0
aF0.0
aF0.0
aF0.0
aF0.0
aF0.0
aF0.0
aF0.0
aF0.0
aF0.0
aF0.0
aF0.0
aF0.0
aF0.0
aF0.0
aF0.0
aF0.0
aF0.0
aF0.0
aF0.0
aF0.0
aF0.0
aF0.0
aF0.0
aF0.0
aF0.0
aF0.0
aF0.0
aF0.0
aF0.0
aF0.0
aF0.0
aF0.0
aF0.0
aF0.0
aF0.0
aF0.0
aF0.0
aF0.0
aF0.0
aF0.0
aF0.0
aF0.0
aF0.0
aF0.0
aF0.0
aF0.0
aF0.0
aF0.0
aF0.0
aF0.0
aF0.0
aF0.0
aF0.0
aF0.0
aF0.0
aF0.0
aF0.0
aF0.0
aF0.0
aF0.0
aF0.0
aF0.0
aF0.0
aF0.0
aF0.0
aF0.0
aF0.0
aF0.0
aF0.0
aF0.0
aF0.0
aF0.0
aF0.0
aF0.0
aF0.0
aF0.0
aF0.0
aF0.0
aF0.0
aF0.0
aF0.0
aF0.0
aF0.0
aF0.0
aF0.0
aF0.0
aF0.0
aF0.0
aF0.0
aF0.0
aF0.0
aF0.0
aF0.0
aF0.0
aF0.0
aF0.0
aF0.0
aF0.0
aF0.0
aF0.0
aF0.0
aF0.0
aF0.0
aF0.0
aF0.0
aF0.0
aF0.0
aF0.0
aF0.0
aF0.0
aF0.0
aF0.0
aF0.0
aF0.0
aF0.0
aF0.0
aF0.0
aF0.0
aF0.0
aF0.0
aF0.0
aF0.0
aF0.0
aF0.0
aF0.0
aF0.0
aF0.0
aF0.0
aF0.0
aF0.0
aF0.0
aF0.0
aF0.0
aF0.0
aF0.0
aF0.0
aF0.0
aF0.0
aF0.0
aF0.0
aF0.0
aF0.0
aF0.0
aF0.0
aF0.0
aF0.0
aF0.0
aF0.0
aF0.0
aF0.0
aF0.0
aF0.0
aF0.0
aF0.0
aF0.0
aF0.0
aF0.0
aF0.0
aF0.0
aF0.0
aF0.0
aF0.0
aF0.0
aF0.0
aF0.0
aF0.0
aF0.0
aF0.0
aF0.0
aF0.0
aF0.0
aF0.0
aF0.0
aF0.0
aF0.0
aF0.0
aF0.0
aF0.0
aF0.0
aF0.0
aF0.0
aF0.0
aF0.0
aF0.0
aF0.0
aF0.0
aF0.0
aF0.0
aF0.0
aF0.0
aF0.0
aF0.0
aF0.0
aF0.0
aF0.0
aF0.0
aF0.0
aF0.0
aF0.0
aF0.0
aF0.0
aF0.0
aF0.0
aF0.0
aF0.0
aF0.0
aF0.0
aF0.0
aF0.0
aF0.0
aF0.0
aF0.0
aF0.0
aF0.0
aF0.0
aF0.0
aF0.0
aF0.0
aF0.0
aF0.0
aF0.0
aF0.0
aF0.0
aF0.0
aF0.0
aF0.0
aF0.0
aF0.0
aF0.0
aF0.0
aF0.0
aF0.0
aF0.0
aF0.0
aF0.0
aF0.0
aF0.0
aF0.0
aF0.0
aF0.0
aF0.0
aF0.0
aF0.0
aF0.0
aF0.0
aF0.0
aF0.0
aF0.0
aF0.0
aF0.0
aF0.0
aF0.0
aF0.0
aF0.0
aF0.0
aF0.0
aF0.0
aF0.0
aF0.0
aF0.0
aF0.0
aF0.0
aF0.0
aF0.0
aF0.0
aF0.0
aF0.0
aF0.0
aF0.0
aF0.0
aF0.0
aF0.0
aF0.0
aF0.0
aF0.0
aF0.0
aF0.0
aF0.0
aF0.0
aF0.0
aF0.0
aF0.0
aF0.0
aF0.0
aF0.0
aF0.0
aF0.0
aF0.0
aF0.0
aF0.0
aF0.0
aF0.0
aF0.0
aF0.0
aF0.0
aF0.0
aF0.0
aF0.0
aF0.0
aF0.0
aF0.0
aF0.0
aF0.0
aF0.0
aF0.0
aF0.0
aF0.0
aF0.0
aF0.0
aF0.0
aF0.0
aF0.0
aF0.0
aF0.0
aF0.0
aF0.0
aF0.0
aF0.0
aF0.0
aF0.0
aF0.0
aF0.0
aF0.0
aF0.0
aF0.0
aF0.0
aF0.0
aF0.0
aF0.0
aF0.0
aF0.0
aF0.0
aF0.0
aF0.0
aF0.0
aF0.0
aF0.0
aF0.0
aF0.0
aF0.0
aF0.0
aF0.0
aF0.0
aF0.0
aF0.0
aF0.0
aF0.0
aF0.0
aF0.0
aF0.0
aF0.0
aF0.0
aF0.0
aF0.0
aF0.0
aF0.0
aF0.0
aF0.0
aF0.0
aF0.0
aF0.0
aF0.0
aF0.0
aF0.0
aF0.0
aF0.0
aF0.0
aF0.0
aF0.0
aF0.0
aF0.0
aF0.0
aF0.0
aF0.0
aF0.0
aF0.0
aF0.0
aF0.0
aF0.0
aF0.0
aF0.0
aF0.0
aF0.0
aF0.0
aF0.0
aF0.0
aF0.0
aF0.0
aF0.0
aF0.0
aF0.0
aF0.0
aF0.0
aF0.0
aF0.0
aF0.0
aF0.0
aF0.0
aF0.0
aF0.0
aF0.0
aF0.0
aF0.0
aF0.0
aF0.0
aF0.0
aF0.0
aF0.0
aF0.0
aF0.0
aF0.0
aF0.0
aF0.0
aF0.0
aF0.0
aF0.0
aF0.0
aF0.0
aF0.0
aF0.0
aF0.0
aF0.0
aF0.0
aF0.0
aF0.0
aF0.0
aF0.0
aF0.0
aF0.0
aF0.0
aF0.0
aF0.0
aF0.0
aF0.0
aF0.0
aF0.0
aF0.0
aF0.0
aF0.0
aF0.0
aF0.0
aF0.0
aF0.0
aF0.0
aF0.0
aF0.0
aF0.0
aF0.0
aF0.0
aF0.0
aF0.0
aF0.0
aF0.0
aF0.0
aF0.0
aF0.0
aF0.0
aF0.0
aF0.0
aF0.0
aF0.0
aF0.0
aF0.0
aF0.0
aF0.0
aF0.0
aF0.0
aF0.0
aF0.0
aF0.0
aF0.0
aF0.0
aF0.0
aF0.0
aF0.0
aF0.0
aF0.0
aF0.0
aF0.0
aF0.0
aF0.0
aF0.0
aF0.0
aF0.0
aF0.0
aF0.0
aF0.0
aF0.0
aF0.0
aF0.0
aF0.0
aF0.0
aF0.0
aF0.0
aF0.0
aF0.0
aF0.0
aF0.0
aF0.0
aF0.0
aF0.0
aF0.0
aF0.0
aF0.0
aF0.0
aF0.0
aF0.0
aF0.0
aF0.0
aF0.0
aF0.0
aF0.0
aF0.0
aF0.0
aF0.0
aF0.0
aF0.0
aF0.0
aF0.0
aF0.0
aF0.0
aF0.0
aF0.0
aF0.0
aF0.0
aF0.0
aF0.0
aF0.0
aF0.0
aF0.0
aF0.0
aF0.0
aF0.0
aF0.0
aF0.0
aF0.0
aF0.0
aF0.0
aF0.0
aF0.0
aF0.0
aF0.0
aF0.0
aF0.0
aF0.0
aF0.0
aF0.0
aF0.0
aF0.0
aF0.0
aF0.0
aF0.0
aF0.0
aF0.0
aaa.